0400 20         CLRP            ; set dpage to 0
0401 CD CF      MOV     X,#$CF
0403 BD         MOV     SP,X    ; SP = $(01)CF
0404 E8 00      MOV     A,#$00
0406 5D         MOV     X,A
0407 AF         MOV     (X)+,A
0408 C8 E0      CMP     X,#$E0
040A D0 FB      BNE     $0407   ; zero $00-DF
040C 8D 02      MOV     Y,#$02
040E DA 14      MOVW    $14,YA  ; set $14 to #$0200
0410 FD         MOV     Y,A
0411 D7 14      MOV     [$14]+Y,A
0413 FC         INC     Y
0414 D0 FB      BNE     $0411
0416 AB 15      INC     $15
0418 F8 15      MOV     X,$15
041A C8 04      CMP     X,#$04
041C D0 F3      BNE     $0411   ; zero $0200-03FF
041E A2 48      SET1    $48.#5
0420 E4 48      MOV     A,$48
0422 8D 6C      MOV     Y,#$6C
0424 3F 1D 07   CALL    $071D   ; disable echo writes
0427 E8 00      MOV     A,#$00
0429 8D 6D      MOV     Y,#$6D
042B 3F 1D 07   CALL    $071D   ; echo addr = $0000
042E 8D 7D      MOV     Y,#$7D
0430 3F 1D 07   CALL    $071D   ; zero echo delay
0433 8D 4D      MOV     Y,#$4D
0435 3F 1D 07   CALL    $071D   ; clear echo vbits
0438 8D 0D      MOV     Y,#$0D
043A 3F 1D 07   CALL    $071D   ; zero echo feedback
043D 8D 2C      MOV     Y,#$2C
043F 3F 1D 07   CALL    $071D   ; zero echo vol L
0442 8D 3C      MOV     Y,#$3C
0444 3F 1D 07   CALL    $071D   ; zero echo vol R
0447 8D 71      MOV     Y,#$71
0449 E8 00      MOV     A,#$00
044B 3F 1D 07   CALL    $071D
044E DC         DEC     Y
044F 3F 1D 07   CALL    $071D
0452 DD         MOV     A,Y
0453 80         SETC
0454 A8 0F      SBC     A,#$0F
0456 FD         MOV     Y,A
0457 10 F0      BPL     $0449   ; zero voice volumes
0459 E8 FF      MOV     A,#$FF
045B C4 46      MOV     $46,A
045D 8D 5C      MOV     Y,#$5C
045F 3F 1D 07   CALL    $071D   ; key off all voices
0462 E8 7F      MOV     A,#$7F
0464 8D 0C      MOV     Y,#$0C
0466 3F 1D 07   CALL    $071D   ; max master vol L
0469 8D 1C      MOV     Y,#$1C
046B 3F 1D 07   CALL    $071D   ; max master vol R
046E E8 FE      MOV     A,#$FE
0470 8D 5D      MOV     Y,#$5D
0472 3F 1D 07   CALL    $071D   ; source dir = $FE00
0475 3F 6C 07   CALL    $076C   ; start timer0, clear ports 2/3, zero $06
0478 E8 F0      MOV     A,#$F0
047A C5 F1 00   MOV     $00F1,A ; clear ports 0-3, timers off
047D E8 20      MOV     A,#$20
047F C5 FA 00   MOV     $00FA,A ; set timer0 latch to #$20 (4ms)
0482 E8 01      MOV     A,#$01
0484 C5 F1 00   MOV     $00F1,A ; start timer0
; begin main loop
0487 8D 06      MOV     Y,#$06
0489 F6 BE 10   MOV     A,$10BE+Y
048C C5 F2 00   MOV     $00F2,A
048F F6 C4 10   MOV     A,$10C4+Y
0492 5D         MOV     X,A
0493 E6         MOV     A,(X)
0494 C5 F3 00   MOV     $00F3,A
0497 FE F0      DBNZ    Y,$0489 ; write DSP regs from shadows
0499 CB 45      MOV     $45,Y   ; clear key on shadow
049B CB 46      MOV     $46,Y   ; clear key off shadow
049D CB 1B      MOV     $1B,Y
049F EC FD 00   MOV     Y,$00FD ; get counter0 value
04A2 D0 53      BNE     $04F7
04A4 E9 F7 00   MOV     X,$00F7 ; read APU3
04A7 1E F7 00   CMP     X,$00F7
04AA D0 F8      BNE     $04A4
04AC 3E 07      CMP     X,$07   ; transfering data?
04AE F0 13      BEQ     $04C3   ;  goto transfer routine
04B0 3E 06      CMP     X,$06   ; same as last time?
04B2 F0 EB      BEQ     $049F   ;  restart counter loop
04B4 D8 06      MOV     $06,X   ; save value in $06
04B6 8F 80 07   MOV     $07,#$80
04B9 EC F6 00   MOV     Y,$00F6 ; read APU2
04BC 5E F6 00   CMP     Y,$00F6
04BF D0 F8      BNE     $04B9   ; debounce
04C1 2F 2C      BRA     $04EF
04C3 EC F6 00   MOV     Y,$00F6 ; read APU2
04C6 5E F6 00   CMP     Y,$00F6
04C9 D0 F8      BNE     $04C3   ; debounce
04CB 7D         MOV     A,X
04CC C4 06      MOV     $06,A   ; save APU3 value as previous in $06
04CE 10 11      BPL     $04E1
04D0 68 80      CMP     A,#$80
04D2 D0 05      BNE     $04D9
04D4 CB 04      MOV     $04,Y   ; get low byte of xfer dest addr from APU2
04D6 BC         INC     A
04D7 2F 04      BRA     $04DD
04D9 CB 05      MOV     $05,Y   ; get hi byte of xfer dest addr from APU2
04DB E8 00      MOV     A,#$00
04DD C4 07      MOV     $07,A
04DF 2F 0E      BRA     $04EF
04E1 DD         MOV     A,Y
04E2 8D 00      MOV     Y,#$00
04E4 D7 04      MOV     [$04]+Y,A   ; transfer byte to ($04/5) from APU2
04E6 FD         MOV     Y,A
04E7 7D         MOV     A,X
04E8 BC         INC     A
04E9 28 7F      AND     A,#$7F
04EB C4 07      MOV     $07,A
04ED 3A 04      INCW    $04
04EF CC F6 00   MOV     $00F6,Y
04F2 C9 F7 00   MOV     $00F7,X ; write back APU2/3 values
04F5 2F A8      BRA     $049F   ; restart counter loop
04F7 CB 43      MOV     $43,Y   ; counter ticked, save # ticks in $43
04F9 CC F5 00   MOV     $00F5,Y ;  and write ticks to APU1
04FC 3F 76 07   CALL    $0776   ; read CPU cmd from APU0
04FF F0 0C      BEQ     $050D
0501 0E 46 00   TSET1   $0046   ; key off vbit(s) in A
0504 4E 1D 00   TCLR1   $001D
0507 0E 1B 00   TSET1   $001B
050A 4E 1F 00   TCLR1   $001F
050D E4 1A      MOV     A,$1A
050F F0 0A      BEQ     $051B
0511 8F 00 5E   MOV     $5E,#$00
0514 CD 0C      MOV     X,#$0C
0516 8F 40 47   MOV     $47,#$40
0519 2F 50      BRA     $056B
051B E4 4E      MOV     A,$4E
051D F0 1A      BEQ     $0539
051F E4 4F      MOV     A,$4F
0521 80         SETC
0522 A4 43      SBC     A,$43
0524 C4 4F      MOV     $4F,A   ; $4F -= $43
0526 B0 11      BCS     $0539
0528 E8 46      MOV     A,#$46
052A 3F 94 07   CALL    $0794   ; do CPU cmd $46
052D 0E 46 00   TSET1   $0046   ; key off vbits in A
0530 4E 1D 00   TCLR1   $001D
0533 0E 1B 00   TSET1   $001B
0536 4E 1F 00   TCLR1   $001F
0539 8F 01 47   MOV     $47,#$01
053C E4 0B      MOV     A,$0B
053E F0 25      BEQ     $0565
0540 CD 3F      MOV     X,#$3F
0542 AB 0C      INC     $0C
0544 E4 0C      MOV     A,$0C
0546 68 04      CMP     A,#$04
0548 D0 1D      BNE     $0567
054A 8F 00 0C   MOV     $0C,#$00
054D AB 0D      INC     $0D
054F E4 0D      MOV     A,$0D
0551 D0 14      BNE     $0567
0553 3F 01 08   CALL    $0801   ; do CPU cmd $FD
0556 0E 46 00   TSET1   $0046   ; set key off shadow from A
0559 4E 1D 00   TCLR1   $001D
055C 4E 1F 00   TCLR1   $001F
055F E8 00      MOV     A,#$00
0561 C4 0B      MOV     $0B,A
0563 C4 0D      MOV     $0D,A
0565 CD 00      MOV     X,#$00
0567 D8 5E      MOV     $5E,X
0569 CD 00      MOV     X,#$00
056B F5 E1 02   MOV     A,$02E1+X
056E F0 1F      BEQ     $058F
0570 E4 47      MOV     A,$47
0572 24 1B      AND     A,$1B
0574 D0 19      BNE     $058F
0576 D8 44      MOV     $44,X
0578 EB 43      MOV     Y,$43
057A F4 D1      MOV     A,$D1+X
057C CF         MUL     YA
057D 60         CLRC
057E 94 D0      ADC     A,$D0+X
0580 D4 D0      MOV     $D0+X,A
0582 90 08      BCC     $058C
0584 3F C7 09   CALL    $09C7   ; process vcmds
0587 3F 99 0D   CALL    $0D99
058A 2F 03      BRA     $058F
058C 3F 06 10   CALL    $1006
058F 3D         INC     X
0590 3D         INC     X
0591 0B 47      ASL     $47
0593 D0 D6      BNE     $056B
0595 5F 87 04   JMP     $0487
;
0598 0A 00 98
059B 0A 18 AE
059E 07 4C AD
05A1 07 42 B1
05A4 0D 20 AA
05A7 0F 18 A6
05AA 0A 24 A9
05AD 05 30 AE
05B0 0A 00 A4
05B3 0A 00 A4
05B6 0A 00 A4
05B9 0A 00 A4
05BC 0A 00 A4
05BF 0A 00 A4
05C2 0A 00 A4
05C5 0A 00 A4
;
05C8 AD CA      CMP     Y,#$CA
05CA 90 31      BCC     $05FD
05CC 3F 9B 0A   CALL    $0A9B
05CF F5 11 02   MOV     A,$0211+X
05D2 80         SETC
05D3 A8 CA      SBC     A,#$CA
05D5 C4 1E      MOV     $1E,A
05D7 1C         ASL     A
05D8 84 1E      ADC     A,$1E
05DA FD         MOV     Y,A
05DB E4 5F      MOV     A,$5F
05DD 24 47      AND     A,$47
05DF F0 0E      BEQ     $05EF
05E1 F6 98 05   MOV     A,$0598+Y
05E4 D5 31 03   MOV     $0331+X,A
05E7 D5 51 03   MOV     $0351+X,A
05EA E8 00      MOV     A,#$00
05EC D5 30 03   MOV     $0330+X,A
05EF FC         INC     Y
05F0 F6 98 05   MOV     A,$0598+Y
05F3 D5 F1 02   MOV     $02F1+X,A
05F6 FC         INC     Y
05F7 F6 98 05   MOV     A,$0598+Y
05FA FD         MOV     Y,A
05FB 2F 35      BRA     $0632
05FD E8 00      MOV     A,#$00
05FF D5 F1 02   MOV     $02F1+X,A
0602 AD C8      CMP     Y,#$C8
0604 90 01      BCC     $0607
0606 6F         RET
0607 E4 49      MOV     A,$49
0609 24 47      AND     A,$47
060B F0 25      BEQ     $0632
060D DD         MOV     A,Y
060E 28 1F      AND     A,#$1F
0610 2D         PUSH    A
0611 E4 48      MOV     A,$48
0613 28 E0      AND     A,#$E0
0615 C4 48      MOV     $48,A
0617 AE         POP     A
0618 04 48      OR      A,$48
061A C4 48      MOV     $48,A
061C 09 47 5E   OR      $5E,$47
061F E4 47      MOV     A,$47
0621 24 1F      AND     A,$1F
0623 D0 E1      BNE     $0606
0625 E8 00      MOV     A,#$00
0627 D5 D0 02   MOV     $02D0+X,A
062A 09 47 45   OR      $45,$47
062D 09 47 1D   OR      $1D,$47
0630 2F D4      BRA     $0606
0632 DD         MOV     A,Y
0633 28 7F      AND     A,#$7F
0635 60         CLRC
0636 95 F0 02   ADC     A,$02F0+X
0639 60         CLRC
063A 95 90 03   ADC     A,$0390+X
063D D5 61 03   MOV     $0361+X,A
0640 F5 81 03   MOV     A,$0381+X
0643 60         CLRC
0644 95 91 03   ADC     A,$0391+X
0647 D5 60 03   MOV     $0360+X,A
064A 90 07      BCC     $0653
064C F5 61 03   MOV     A,$0361+X
064F BC         INC     A
0650 D5 61 03   MOV     $0361+X,A
0653 F5 60 03   MOV     A,$0360+X
0656 60         CLRC
0657 95 50 02   ADC     A,$0250+X
065A D5 60 03   MOV     $0360+X,A
065D F5 61 03   MOV     A,$0361+X
0660 95 51 02   ADC     A,$0251+X
0663 D5 61 03   MOV     $0361+X,A
0666 09 47 5E   OR      $5E,$47
0669 E4 47      MOV     A,$47
066B 24 1F      AND     A,$1F
066D D0 1C      BNE     $068B
066F F5 B1 02   MOV     A,$02B1+X
0672 5C         LSR     A
0673 E8 00      MOV     A,#$00
0675 7C         ROR     A
0676 D5 A0 02   MOV     $02A0+X,A
0679 E8 00      MOV     A,#$00
067B D4 B0      MOV     $B0+X,A
067D D5 00 01   MOV     $0100+X,A
0680 D5 D0 02   MOV     $02D0+X,A
0683 D4 C0      MOV     $C0+X,A
0685 09 47 45   OR      $45,$47
0688 09 47 1D   OR      $1D,$47
068B F5 80 02   MOV     A,$0280+X
068E D4 A0      MOV     $A0+X,A
0690 F0 1E      BEQ     $06B0
0692 F5 81 02   MOV     A,$0281+X
0695 D4 A1      MOV     $A1+X,A
0697 F5 90 02   MOV     A,$0290+X
069A D0 0A      BNE     $06A6
069C F5 61 03   MOV     A,$0361+X
069F 80         SETC
06A0 B5 91 02   SBC     A,$0291+X
06A3 D5 61 03   MOV     $0361+X,A
06A6 F5 91 02   MOV     A,$0291+X
06A9 60         CLRC
06AA 95 61 03   ADC     A,$0361+X
06AD 3F FD 0C   CALL    $0CFD
06B0 3F 15 0D   CALL    $0D15
;
06B3 8D 00      MOV     Y,#$00
06B5 E4 11      MOV     A,$11
06B7 80         SETC
06B8 A8 34      SBC     A,#$34
06BA B0 09      BCS     $06C5
06BC E4 11      MOV     A,$11
06BE 80         SETC
06BF A8 13      SBC     A,#$13
06C1 B0 06      BCS     $06C9
06C3 DC         DEC     Y
06C4 1C         ASL     A
06C5 7A 10      ADDW    YA,$10
06C7 DA 10      MOVW    $10,YA
;?
06C9 4D         PUSH    X
06CA E4 11      MOV     A,$11
06CC 1C         ASL     A
06CD 8D 00      MOV     Y,#$00
06CF CD 18      MOV     X,#$18
06D1 9E         DIV     YA,X
06D2 5D         MOV     X,A
06D3 F6 CC 10   MOV     A,$10CC+Y
06D6 C4 15      MOV     $15,A
06D8 F6 CB 10   MOV     A,$10CB+Y
06DB C4 14      MOV     $14,A
06DD F6 CE 10   MOV     A,$10CE+Y
06E0 2D         PUSH    A
06E1 F6 CD 10   MOV     A,$10CD+Y
06E4 EE         POP     Y
06E5 9A 14      SUBW    YA,$14
06E7 EB 10      MOV     Y,$10
06E9 CF         MUL     YA
06EA DD         MOV     A,Y
06EB 8D 00      MOV     Y,#$00
06ED 7A 14      ADDW    YA,$14
06EF CB 15      MOV     $15,Y
06F1 1C         ASL     A
06F2 2B 15      ROL     $15
06F4 C4 14      MOV     $14,A
06F6 2F 04      BRA     $06FC
06F8 4B 15      LSR     $15
06FA 7C         ROR     A
06FB 3D         INC     X
06FC C8 06      CMP     X,#$06
06FE D0 F8      BNE     $06F8
0700 CE         POP     X
0701 C4 14      MOV     $14,A
0703 0B 14      ASL     $14
0705 2B 15      ROL     $15
0707 0B 14      ASL     $14
0709 2B 15      ROL     $15
070B BA 14      MOVW    YA,$14
070D DA 16      MOVW    $16,YA  ; final pitch
070F 7D         MOV     A,X
0710 9F         XCN     A
0711 5C         LSR     A
0712 08 02      OR      A,#$02  ; pitch DSP reg for voice X
0714 FD         MOV     Y,A
0715 E4 16      MOV     A,$16
0717 3F 1D 07   CALL    $071D
071A FC         INC     Y
071B E4 17      MOV     A,$17   ; set DSP pitch from $16/7
; set DSP reg Y to A
071D CC F2 00   MOV     $00F2,Y
0720 C5 F3 00   MOV     $00F3,A
0723 6F         RET
;
0724 8D 00      MOV     Y,#$00
0726 F7 40      MOV     A,[$40]+Y
0728 3A 40      INCW    $40
072A 2D         PUSH    A
072B F7 40      MOV     A,[$40]+Y
072D F0 08      BEQ     $0737
072F 3A 40      INCW    $40
0731 FD         MOV     Y,A
0732 AE         POP     A
0733 7A 4B      ADDW    YA,$4B
0735 2F 04      BRA     $073B
0737 3A 40      INCW    $40
0739 FD         MOV     Y,A
073A AE         POP     A
073B 6F         RET
;
073C E8 20      MOV     A,#$20
073E D4 D1      MOV     $D1+X,A
0740 F5 E1 02   MOV     A,$02E1+X
0743 68 80      CMP     A,#$80
0745 B0 02      BCS     $0749
0747 2F 12      BRA     $075B
0749 68 A0      CMP     A,#$A0
074B B0 07      BCS     $0754
074D 4D         PUSH    X
074E 3F 01 08   CALL    $0801
0751 CE         POP     X
0752 2F 0E      BRA     $0762
0754 4D         PUSH    X
0755 3F E8 07   CALL    $07E8
0758 CE         POP     X
0759 2F 07      BRA     $0762
075B E8 00      MOV     A,#$00
075D D5 E1 02   MOV     $02E1+X,A
0760 E4 47      MOV     A,$47
0762 0E 46 00   TSET1   $0046
0765 4E 1D 00   TCLR1   $001D
0768 4E 1F 00   TCLR1   $001F
076B 6F         RET
;
076C E8 21      MOV     A,#$21
076E C5 F1 00   MOV     $00F1,A ; start timer0; clear ports 2/3
0771 E8 00      MOV     A,#$00
0773 C4 06      MOV     $06,A
0775 6F         RET
; read CPU cmd from APU0
0776 E5 F4 00   MOV     A,$00F4 ; read APU0
0779 65 F4 00   CMP     A,$00F4
077C D0 F8      BNE     $0776   ; debounce
077E 68 00      CMP     A,#$00
0780 D0 01      BNE     $0783
0782 6F         RET             ; return if zero
0783 C5 F4 00   MOV     $00F4,A ; write APU0 back
0786 8D 11      MOV     Y,#$11
0788 CC F1 00   MOV     $00F1,Y ; clear ports 0/1, keep timer0 running
078B 68 47      CMP     A,#$47
078D D0 05      BNE     $0794
078F E8 00      MOV     A,#$00  ; CPU cmd $47: zero $4E
0791 C4 4E      MOV     $4E,A
0793 6F         RET
;
0794 68 46      CMP     A,#$46
0796 D0 08      BNE     $07A0
0798 8D 01      MOV     Y,#$01  ; CPU cmd $46: set $4E to 1, $4F to #$90
079A CB 4E      MOV     $4E,Y
079C 8D 90      MOV     Y,#$90
079E CB 4F      MOV     $4F,Y
07A0 68 7F      CMP     A,#$7F
07A2 F0 21      BEQ     $07C5   ; CPU cmd $7F: no-op
07A4 68 F0      CMP     A,#$F0
07A6 D0 08      BNE     $07B0
07A8 E8 3F      MOV     A,#$3F  ; CPU cmd $F0: key off v0-6
07AA C4 46      MOV     $46,A
07AC C4 1A      MOV     $1A,A
07AE E8 7F      MOV     A,#$7F
07B0 68 F1      CMP     A,#$F1
07B2 D0 14      BNE     $07C8
07B4 E8 00      MOV     A,#$00  ; CPU cmd $F1: 
07B6 C4 1A      MOV     $1A,A
07B8 E4 1D      MOV     A,$1D
07BA EC E1 02   MOV     Y,$02E1
07BD AD A0      CMP     Y,#$A0
07BF B0 02      BCS     $07C3
07C1 28 3F      AND     A,#$3F
07C3 C4 45      MOV     $45,A
07C5 E8 00      MOV     A,#$00
07C7 6F         RET
07C8 68 FA      CMP     A,#$FA
07CA D0 03      BNE     $07CF
07CC C4 19      MOV     $19,A   ; CPU cmd $FA: set $19 to #$FA
07CE 6F         RET             ; key off v1,3-7
07CF 68 FB      CMP     A,#$FB
07D1 D0 05      BNE     $07D8
07D3 E8 00      MOV     A,#$00
07D5 C4 19      MOV     $19,A   ; CPU cmd $FB: zero $19
07D7 6F         RET
07D8 68 FC      CMP     A,#$FC
07DA D0 08      BNE     $07E4
07DC E8 01      MOV     A,#$01  ; CPU cmd $FC: set $0B/C to $0001
07DE C4 0B      MOV     $0B,A
07E0 9C         DEC     A
07E1 C4 0C      MOV     $0C,A
07E3 6F         RET
07E4 68 FE      CMP     A,#$FE
07E6 D0 15      BNE     $07FD
07E8 E8 00      MOV     A,#$00  ; CPU cmd $FE: zero $4E
07EA C4 4E      MOV     $4E,A
07EC CD 0E      MOV     X,#$0E
07EE 8D FF      MOV     Y,#$FF
07F0 E8 00      MOV     A,#$00
07F2 C4 1A      MOV     $1A,A
07F4 D5 E1 02   MOV     $02E1+X,A
07F7 1D         DEC     X
07F8 1D         DEC     X
07F9 10 F9      BPL     $07F4
07FB DD         MOV     A,Y     ; key off all voices on return
07FC 6F         RET
07FD 68 FD      CMP     A,#$FD
07FF D0 06      BNE     $0807
0801 CD 0A      MOV     X,#$0A  ; CPU cmd $FD: like FE but key off v0-6
0803 8D 3F      MOV     Y,#$3F
0805 2F E9      BRA     $07F0
0807 68 60      CMP     A,#$60
0809 B0 3C      BCS     $0847
080B CD 01      MOV     X,#$01  ; CPU cmds < #$60
080D 8D 0C      MOV     Y,#$0C
080F 8F 40 47   MOV     $47,#$40
0812 76 E3 02   CMP     A,$02E3+Y
0815 D0 0E      BNE     $0825
0817 68 06      CMP     A,#$06
0819 D0 1B      BNE     $0836
081B 2D         PUSH    A
081C 9C         DEC     A
081D 76 E1 02   CMP     A,$02E1+Y
0820 AE         POP     A
0821 D0 13      BNE     $0836
0823 2F 1A      BRA     $083F
0825 76 E1 02   CMP     A,$02E1+Y
0828 90 0C      BCC     $0836
082A 68 06      CMP     A,#$06
082C D0 11      BNE     $083F
082E 2D         PUSH    A
082F 9C         DEC     A
0830 76 E3 02   CMP     A,$02E3+Y
0833 AE         POP     A
0834 D0 09      BNE     $083F
0836 FC         INC     Y
0837 FC         INC     Y
0838 0B 47      ASL     $47
083A 76 E1 02   CMP     A,$02E1+Y
083D 90 6F      BCC     $08AE   ; ret
083F 3F B1 08   CALL    $08B1
0842 F0 02      BEQ     $0846
0844 E4 47      MOV     A,$47
0846 6F         RET
0847 68 80      CMP     A,#$80
0849 B0 22      BCS     $086D
084B CD 02      MOV     X,#$02  ; CPU cmds $60-$7E
084D 8D 0C      MOV     Y,#$0C
084F 76 E1 02   CMP     A,$02E1+Y
0852 B0 11      BCS     $0865
0854 68 65      CMP     A,#$65
0856 90 56      BCC     $08AE   ; ret
0858 68 7E      CMP     A,#$7E
085A B0 52      BCS     $08AE   ; ret
085C 2D         PUSH    A
085D F6 E1 02   MOV     A,$02E1+Y
0860 68 7E      CMP     A,#$7E
0862 AE         POP     A
0863 B0 49      BCS     $08AE   ; ret
0865 3F B1 08   CALL    $08B1
0868 F0 02      BEQ     $086C
086A E8 C0      MOV     A,#$C0
086C 6F         RET
086D 68 A0      CMP     A,#$A0
086F B0 1D      BCS     $088E
0871 68 87      CMP     A,#$87  
0873 B0 39      BCS     $08AE   ; ret
0875 8D 00      MOV     Y,#$00  ; CPU cmds $80-86
0877 68 81      CMP     A,#$81
0879 D0 02      BNE     $087D
087B 8D 0C      MOV     Y,#$0C
087D CB 4C      MOV     $4C,Y
087F 8F 00 4B   MOV     $4B,#$00
0882 CD 06      MOV     X,#$06
0884 8D 00      MOV     Y,#$00
0886 3F B1 08   CALL    $08B1
0889 F0 02      BEQ     $088D
088B E8 3F      MOV     A,#$3F
088D 6F         RET
088E 68 A8      CMP     A,#$A8
0890 B0 1C      BCS     $08AE   ; ret
0892 8D 00      MOV     Y,#$00  ; CPU cmds $A0-A7
0894 68 A1      CMP     A,#$A1
0896 D0 02      BNE     $089A
0898 8D 0C      MOV     Y,#$0C
089A CB 4C      MOV     $4C,Y
089C 8F 00 4B   MOV     $4B,#$00
089F CD 08      MOV     X,#$08
08A1 8D 00      MOV     Y,#$00
08A3 3F B1 08   CALL    $08B1
08A6 F0 02      BEQ     $08AA
08A8 E8 FF      MOV     A,#$FF
08AA 6F         RET
08AB CE         POP     X
08AC EE         POP     Y
08AD AE         POP     A
08AE E8 00      MOV     A,#$00
08B0 6F         RET
;
08B1 2D         PUSH    A
08B2 6D         PUSH    Y
08B3 4D         PUSH    X
08B4 1C         ASL     A
08B5 90 35      BCC     $08EC
08B7 5D         MOV     X,A
08B8 F5 FC 11   MOV     A,$11FC+X
08BB F0 EE      BEQ     $08AB
08BD FD         MOV     Y,A
08BE F5 FB 11   MOV     A,$11FB+X
08C1 DA 40      MOVW    $40,YA      ; song metaindex ptr
08C3 3F 24 07   CALL    $0724
08C6 DA 16      MOVW    $16,YA
08C8 CE         POP     X
08C9 EE         POP     Y
08CA AE         POP     A
08CB D6 E1 02   MOV     $02E1+Y,A
08CE 2D         PUSH    A
08CF 3F 1D 09   CALL    $091D
08D2 3F 69 09   CALL    $0969
08D5 AE         POP     A
08D6 1D         DEC     X
08D7 D0 F2      BNE     $08CB
08D9 E4 19      MOV     A,$19
08DB F0 02      BEQ     $08DF
08DD E8 00      MOV     A,#$00
08DF C4 5F      MOV     $5F,A
08E1 E8 00      MOV     A,#$00
08E3 C4 42      MOV     $42,A
08E5 C4 0B      MOV     $0B,A
08E7 C4 0D      MOV     $0D,A
08E9 5F 66 09   JMP     $0966
08EC CB 15      MOV     $15,Y
08EE 5D         MOV     X,A
08EF F5 FC 10   MOV     A,$10FC+X
08F2 F0 B7      BEQ     $08AB
08F4 FD         MOV     Y,A
08F5 F5 FB 10   MOV     A,$10FB+X
08F8 80         SETC
08F9 A4 15      SBC     A,$15
08FB B0 01      BCS     $08FE
08FD DC         DEC     Y
08FE DA 16      MOVW    $16,YA
0900 CE         POP     X
0901 EE         POP     Y
0902 AE         POP     A
0903 D6 E1 02   MOV     $02E1+Y,A
0906 2D         PUSH    A
0907 3F 1D 09   CALL    $091D
090A F7 16      MOV     A,[$16]+Y
090C D6 30 00   MOV     $0030+Y,A
090F FC         INC     Y
0910 F7 16      MOV     A,[$16]+Y
0912 D6 30 00   MOV     $0030+Y,A
0915 FC         INC     Y
0916 AE         POP     A
0917 1D         DEC     X
0918 D0 E9      BNE     $0903
091A 5F 66 09   JMP     $0966
091D E8 FF      MOV     A,#$FF
091F D6 01 03   MOV     $0301+Y,A
0922 D6 D0 00   MOV     $00D0+Y,A
0925 E8 0A      MOV     A,#$0A
0927 D6 51 03   MOV     $0351+Y,A
092A D6 31 03   MOV     $0331+Y,A
092D E8 00      MOV     A,#$00
092F D6 30 03   MOV     $0330+Y,A
0932 D6 81 03   MOV     $0381+Y,A
0935 D6 F0 02   MOV     $02F0+Y,A
0938 D6 80 02   MOV     $0280+Y,A
093B D6 B1 00   MOV     $00B1+Y,A
093E D6 C1 00   MOV     $00C1+Y,A
0941 D6 81 00   MOV     $0081+Y,A
0944 D6 01 01   MOV     $0101+Y,A
0947 D6 50 02   MOV     $0250+Y,A
094A D6 51 02   MOV     $0251+Y,A
094D D6 71 02   MOV     $0271+Y,A
0950 D6 80 00   MOV     $0080+Y,A
0953 D6 90 00   MOV     $0090+Y,A
0956 D6 91 00   MOV     $0091+Y,A
0959 BC         INC     A
095A D6 70 00   MOV     $0070+Y,A
095D D6 01 02   MOV     $0201+Y,A
0960 E8 20      MOV     A,#$20
0962 D6 D1 00   MOV     $00D1+Y,A
0965 6F         RET
0966 E8 01      MOV     A,#$01
0968 6F         RET
0969 F7 16      MOV     A,[$16]+Y
096B 60         CLRC
096C 84 4B      ADC     A,$4B
096E D6 30 00   MOV     $0030+Y,A
0971 FC         INC     Y
0972 F7 16      MOV     A,[$16]+Y
0974 84 4C      ADC     A,$4C
0976 D6 30 00   MOV     $0030+Y,A
0979 FC         INC     Y
097A 6F         RET
097B 3F 24 07   CALL    $0724
097E D0 19      BNE     $0999
0980 FD         MOV     Y,A
0981 D0 03      BNE     $0986
0983 5F 3C 07   JMP     $073C
0986 8B 42      DEC     $42
0988 10 02      BPL     $098C
098A C4 42      MOV     $42,A
098C 3F 24 07   CALL    $0724
098F 2D         PUSH    A
0990 E4 42      MOV     A,$42
0992 AE         POP     A
0993 F0 E6      BEQ     $097B
0995 DA 40      MOVW    $40,YA
0997 2F E2      BRA     $097B
0999 DA 16      MOVW    $16,YA
099B 8D 00      MOV     Y,#$00
099D E8 00      MOV     A,#$00
099F D6 80 00   MOV     $0080+Y,A
09A2 D6 90 00   MOV     $0090+Y,A
09A5 D6 91 00   MOV     $0091+Y,A
09A8 BC         INC     A
09A9 D6 70 00   MOV     $0070+Y,A
09AC 3F 69 09   CALL    $0969
09AF F5 E1 02   MOV     A,$02E1+X
09B2 68 A0      CMP     A,#$A0
09B4 B0 06      BCS     $09BC
09B6 AD 0C      CMP     Y,#$0C
09B8 D0 E3      BNE     $099D
09BA 2F 04      BRA     $09C0
09BC AD 10      CMP     Y,#$10
09BE D0 DD      BNE     $099D
09C0 CD 00      MOV     X,#$00
09C2 D8 5E      MOV     $5E,X
09C4 8F 01 47   MOV     $47,#$01
;
09C7 9B 70      DEC     $70+X   ; voice dur ctr
09C9 F0 03      BEQ     $09CE
09CB 5F 50 0A   JMP     $0A50
09CE 3F 69 0A   CALL    $0A69
09D1 D0 21      BNE     $09F4
09D3 F4 80      MOV     A,$80+X     ; end repeat
09D5 D0 0A      BNE     $09E1
09D7 F5 E1 02   MOV     A,$02E1+X
09DA 68 80      CMP     A,#$80
09DC B0 9D      BCS     $097B
09DE 5F 3C 07   JMP     $073C
09E1 3F 79 0C   CALL    $0C79
09E4 9B 80      DEC     $80+X
09E6 D0 E6      BNE     $09CE
09E8 F5 30 02   MOV     A,$0230+X
09EB D4 30      MOV     $30+X,A
09ED F5 31 02   MOV     A,$0231+X
09F0 D4 31      MOV     $31+X,A
09F2 2F DA      BRA     $09CE
09F4 30 24      BMI     $0A1A
09F6 D5 00 02   MOV     $0200+X,A
09F9 3F 69 0A   CALL    $0A69
09FC 30 1C      BMI     $0A1A
09FE 2D         PUSH    A
09FF 9F         XCN     A
0A00 28 07      AND     A,#$07
0A02 FD         MOV     Y,A
0A03 F6 E5 10   MOV     A,$10E5+Y
0A06 D5 01 02   MOV     $0201+X,A
0A09 AE         POP     A
0A0A 28 0F      AND     A,#$0F
0A0C FD         MOV     Y,A
0A0D F6 ED 10   MOV     A,$10ED+Y
0A10 60         CLRC
0A11 95 01 01   ADC     A,$0101+X
0A14 D5 10 02   MOV     $0210+X,A
0A17 3F 69 0A   CALL    $0A69
0A1A 68 E0      CMP     A,#$E0
0A1C 90 05      BCC     $0A23
0A1E 3F 57 0A   CALL    $0A57
0A21 2F AB      BRA     $09CE
0A23 3F C8 05   CALL    $05C8
0A26 F5 01 02   MOV     A,$0201+X
0A29 D0 0B      BNE     $0A36
0A2B E4 1F      MOV     A,$1F
0A2D 24 47      AND     A,$47
0A2F D0 0D      BNE     $0A3E
0A31 09 47 1F   OR      $1F,$47
0A34 2F 08      BRA     $0A3E
0A36 E4 47      MOV     A,$47
0A38 48 FF      EOR     A,#$FF
0A3A 24 1F      AND     A,$1F
0A3C C4 1F      MOV     $1F,A
0A3E F5 00 02   MOV     A,$0200+X
0A41 D4 70      MOV     $70+X,A
0A43 FD         MOV     Y,A
0A44 F5 01 02   MOV     A,$0201+X
0A47 F0 01      BEQ     $0A4A
0A49 BC         INC     A
0A4A CF         MUL     YA
0A4B DD         MOV     A,Y
0A4C D4 71      MOV     $71+X,A
0A4E 2F 03      BRA     $0A53
0A50 3F 6C 0E   CALL    $0E6C
0A53 3F DF 0C   CALL    $0CDF
0A56 6F         RET
; dispatch vcmd ($E0-FE)
0A57 1C         ASL     A
0A58 FD         MOV     Y,A
0A59 F6 7D 0C   MOV     A,$0C7D+Y
0A5C 2D         PUSH    A
0A5D F6 7C 0C   MOV     A,$0C7C+Y   ; vcmd addr (effectively D3C/D+Y)
0A60 2D         PUSH    A
0A61 DD         MOV     A,Y
0A62 5C         LSR     A
0A63 FD         MOV     Y,A
0A64 F6 1A 0D   MOV     A,$0D1A+Y   ; vcmd len (effectively D7A+Y)
0A67 F0 08      BEQ     $0A71
; get next vbyte into A, Y
0A69 E7 30      MOV     A,[$30+X]
0A6B BB 30      INC     $30+X
0A6D D0 02      BNE     $0A71
0A6F BB 31      INC     $31+X
0A71 FD         MOV     Y,A
0A72 6F         RET
; for 390+X
0A73 FE 00 FF 07  0B FF 0A FB  FB FD FB 09  FD 09 FD E8  F2 F7 03 F4
; for 391+X
0A87 F0 0A 1E 0A  5A 64 E8 0A  0A B4 0A B2  BE BA BA 00  96 E1 E1 DC
; vcmd E0 - instrument?
0A9B D5 11 02   MOV     $0211+X,A
0A9E FD         MOV     Y,A
0A9F 30 15      BMI     $0AB6
0AA1 2D         PUSH    A
0AA2 4D         PUSH    X
0AA3 5D         MOV     X,A
0AA4 F5 73 0A   MOV     A,$0A73+X
0AA7 FD         MOV     Y,A
0AA8 F5 87 0A   MOV     A,$0A87+X
0AAB CE         POP     X
0AAC D5 91 03   MOV     $0391+X,A
0AAF DD         MOV     A,Y
0AB0 D5 90 03   MOV     $0390+X,A
0AB3 AE         POP     A
0AB4 2F 10      BRA     $0AC6
0AB6 2D         PUSH    A
0AB7 E8 00      MOV     A,#$00
0AB9 D5 91 03   MOV     $0391+X,A
0ABC D5 90 03   MOV     $0390+X,A
0ABF AE         POP     A
0AC0 80         SETC
0AC1 A8 CA      SBC     A,#$CA
0AC3 60         CLRC
0AC4 88 14      ADC     A,#$14
0AC6 8D 06      MOV     Y,#$06
0AC8 CF         MUL     YA
0AC9 DA 14      MOVW    $14,YA
0ACB 60         CLRC
0ACC 98 4B 14   ADC     $14,#$4B
0ACF 98 12 15   ADC     $15,#$12
0AD2 4D         PUSH    X
0AD3 7D         MOV     A,X
0AD4 9F         XCN     A
0AD5 5C         LSR     A
0AD6 08 04      OR      A,#$04
0AD8 5D         MOV     X,A
0AD9 8D 00      MOV     Y,#$00
0ADB F7 14      MOV     A,[$14]+Y
0ADD 10 0E      BPL     $0AED
0ADF 28 1F      AND     A,#$1F
0AE1 38 20 48   AND     $48,#$20
0AE4 0E 48 00   TSET1   $0048
0AE7 09 47 49   OR      $49,$47
0AEA DD         MOV     A,Y
0AEB 2F 07      BRA     $0AF4
0AED E4 47      MOV     A,$47
0AEF 4E 49 00   TCLR1   $0049
0AF2 F7 14      MOV     A,[$14]+Y
0AF4 C9 F2 00   MOV     $00F2,X
0AF7 C5 F3 00   MOV     $00F3,A
0AFA 3D         INC     X
0AFB FC         INC     Y
0AFC AD 04      CMP     Y,#$04
0AFE D0 F2      BNE     $0AF2
0B00 CE         POP     X
0B01 F7 14      MOV     A,[$14]+Y
0B03 D5 21 02   MOV     $0221+X,A
0B06 FC         INC     Y
0B07 F7 14      MOV     A,[$14]+Y
0B09 D5 20 02   MOV     $0220+X,A
0B0C 6F         RET
; vcmd E1 - pan?
0B0D EB 19      MOV     Y,$19
0B0F D0 23      BNE     $0B34
0B11 68 FF      CMP     A,#$FF
0B13 F0 04      BEQ     $0B19
0B15 30 09      BMI     $0B20
0B17 2F 0E      BRA     $0B27
0B19 E4 47      MOV     A,$47
0B1B 0E 5F 00   TSET1   $005F
0B1E 2F 05      BRA     $0B25
0B20 E4 47      MOV     A,$47
0B22 4E 5F 00   TCLR1   $005F
0B25 E8 0A      MOV     A,#$0A
0B27 D5 51 03   MOV     $0351+X,A
0B2A 28 1F      AND     A,#$1F
0B2C D5 31 03   MOV     $0331+X,A
0B2F E8 00      MOV     A,#$00
0B31 D5 30 03   MOV     $0330+X,A
0B34 6F         RET
; vcmd E2 - pan fade?
0B35 EB 19      MOV     Y,$19
0B37 F0 03      BEQ     $0B3C
0B39 5F 69 0A   JMP     $0A69
0B3C D4 91      MOV     $91+X,A
0B3E 2D         PUSH    A
0B3F 3F 69 0A   CALL    $0A69
0B42 D5 50 03   MOV     $0350+X,A
0B45 80         SETC
0B46 B5 31 03   SBC     A,$0331+X
0B49 CE         POP     X
0B4A 3F 20 0D   CALL    $0D20
0B4D D5 40 03   MOV     $0340+X,A
0B50 DD         MOV     A,Y
0B51 D5 41 03   MOV     $0341+X,A
0B54 6F         RET
; vcmd E3
0B55 D5 B0 02   MOV     $02B0+X,A
0B58 3F 69 0A   CALL    $0A69
0B5B D5 A1 02   MOV     $02A1+X,A
0B5E 3F 69 0A   CALL    $0A69
0B61 D4 B1      MOV     $B1+X,A
0B63 D5 C1 02   MOV     $02C1+X,A
0B66 E8 00      MOV     A,#$00
0B68 D5 B1 02   MOV     $02B1+X,A
0B6B 6F         RET
; vcmd F0
0B6C D5 B1 02   MOV     $02B1+X,A
0B6F 2D         PUSH    A
0B70 8D 00      MOV     Y,#$00
0B72 F4 B1      MOV     A,$B1+X
0B74 CE         POP     X
0B75 9E         DIV     YA,X
0B76 F8 44      MOV     X,$44
0B78 D5 C0 02   MOV     $02C0+X,A
0B7B 6F         RET
; vcmd E4
0B7C D5 70 02   MOV     $0270+X,A
0B7F 3F 69 0A   CALL    $0A69
0B82 D5 71 02   MOV     $0271+X,A
0B85 E8 00      MOV     A,#$00
0B87 D4 20      MOV     $20+X,A
0B89 D4 21      MOV     $21+X,A
0B8B 6F         RET
; vcmd E5
0B8C F4 30      MOV     A,$30+X
0B8E D5 60 02   MOV     $0260+X,A
0B91 F4 31      MOV     A,$31+X
0B93 D5 61 02   MOV     $0261+X,A
0B96 E8 00      MOV     A,#$00
0B98 D4 81      MOV     $81+X,A
0B9A 6F         RET
; vcmd E6
0B9B BB 81      INC     $81+X
0B9D 74 81      CMP     A,$81+X
0B9F F0 39      BEQ     $0BDA
0BA1 3F 69 0A   CALL    $0A69
0BA4 60         CLRC
0BA5 95 01 01   ADC     A,$0101+X
0BA8 D5 01 01   MOV     $0101+X,A
0BAB 3F 69 0A   CALL    $0A69
0BAE 8D 00      MOV     Y,#$00
0BB0 1C         ASL     A
0BB1 90 01      BCC     $0BB4
0BB3 DC         DEC     Y
0BB4 CB 1E      MOV     $1E,Y
0BB6 1C         ASL     A
0BB7 2B 1E      ROL     $1E
0BB9 1C         ASL     A
0BBA 2B 1E      ROL     $1E
0BBC 1C         ASL     A
0BBD 2B 1E      ROL     $1E
0BBF EB 1E      MOV     Y,$1E
0BC1 60         CLRC
0BC2 95 50 02   ADC     A,$0250+X
0BC5 D5 50 02   MOV     $0250+X,A
0BC8 DD         MOV     A,Y
0BC9 95 51 02   ADC     A,$0251+X
0BCC D5 51 02   MOV     $0251+X,A
0BCF F5 60 02   MOV     A,$0260+X
0BD2 D4 30      MOV     $30+X,A
0BD4 F5 61 02   MOV     A,$0261+X
0BD7 D4 31      MOV     $31+X,A
0BD9 6F         RET
0BDA E8 00      MOV     A,#$00
0BDC D4 81      MOV     $81+X,A
0BDE D5 01 01   MOV     $0101+X,A
0BE1 D5 50 02   MOV     $0250+X,A
0BE4 D5 51 02   MOV     $0251+X,A
0BE7 3F 6B 0A   CALL    $0A6B
0BEA 5F 6B 0A   JMP     $0A6B
; vcmd E7
0BED 1C         ASL     A
0BEE D5 D1 00   MOV     $00D1+X,A
; vcmd E8
0BF1 6F         RET
; vcmd E9
0BF2 6F         RET
; vcmd EA - voice transpose?
0BF3 D5 F0 02   MOV     $02F0+X,A
0BF6 6F         RET
; vcmd EB - tremolo?
0BF7 D5 E0 02   MOV     $02E0+X,A
0BFA 3F 69 0A   CALL    $0A69
0BFD D5 D1 02   MOV     $02D1+X,A
0C00 3F 69 0A   CALL    $0A69
; vcmd EC - tremolo off?
0C03 D4 C1      MOV     $C1+X,A
0C05 6F         RET
; vcmd F1
0C06 E8 01      MOV     A,#$01
0C08 2F 02      BRA     $0C0C
; vcmd F2
0C0A E8 00      MOV     A,#$00
0C0C D5 90 02   MOV     $0290+X,A
0C0F DD         MOV     A,Y
0C10 D5 81 02   MOV     $0281+X,A
0C13 3F 69 0A   CALL    $0A69
0C16 D5 80 02   MOV     $0280+X,A
0C19 3F 69 0A   CALL    $0A69
0C1C D5 91 02   MOV     $0291+X,A
0C1F 6F         RET
; vcmd F3
0C20 D5 80 02   MOV     $0280+X,A
0C23 6F         RET
; vcmd ED - voice volume
0C24 D5 01 03   MOV     $0301+X,A
0C27 E8 00      MOV     A,#$00
0C29 D5 00 03   MOV     $0300+X,A
0C2C 6F         RET
; vcmd EE - voice volume fade
0C2D D4 90      MOV     $90+X,A
0C2F 2D         PUSH    A
0C30 3F 69 0A   CALL    $0A69
0C33 D5 20 03   MOV     $0320+X,A
0C36 80         SETC
0C37 B5 01 03   SBC     A,$0301+X
0C3A CE         POP     X
0C3B 3F 20 0D   CALL    $0D20
0C3E D5 10 03   MOV     $0310+X,A
0C41 DD         MOV     A,Y
0C42 D5 11 03   MOV     $0311+X,A
0C45 6F         RET
; vcmd F4 - detune?
0C46 D5 81 03   MOV     $0381+X,A
0C49 6F         RET
; vcmd EF - repeat?
0C4A D5 40 02   MOV     $0240+X,A
0C4D 3F 69 0A   CALL    $0A69
0C50 D5 41 02   MOV     $0241+X,A
0C53 F5 E1 02   MOV     A,$02E1+X
0C56 68 80      CMP     A,#$80
0C58 90 10      BCC     $0C6A
0C5A F5 41 02   MOV     A,$0241+X
0C5D FD         MOV     Y,A
0C5E F5 40 02   MOV     A,$0240+X
0C61 7A 4B      ADDW    YA,$4B
0C63 D5 40 02   MOV     $0240+X,A
0C66 DD         MOV     A,Y
0C67 D5 41 02   MOV     $0241+X,A
0C6A 3F 69 0A   CALL    $0A69
0C6D D4 80      MOV     $80+X,A
0C6F F4 30      MOV     A,$30+X
0C71 D5 30 02   MOV     $0230+X,A
0C74 F4 31      MOV     A,$31+X
0C76 D5 31 02   MOV     $0231+X,A
0C79 F5 40 02   MOV     A,$0240+X
0C7C D4 30      MOV     $30+X,A
0C7E F5 41 02   MOV     A,$0241+X
0C81 D4 31      MOV     $31+X,A
0C83 6F         RET
; vcmd F5-F8 - echo settings (always disable)
0C84 A2 48      SET1    $48.#5  ; disable echo write (FLG shadow)
0C86 6F         RET
; vcmd FA
0C87 6F         RET
; vcmd FB - set envelope (ADSR/GAIN) parameters
0C88 8D 00      MOV     Y,#$00
0C8A 68 A0      CMP     A,#$A0
0C8C B0 10      BCS     $0C9E
0C8E 4D         PUSH    X
0C8F CD 0A      MOV     X,#$0A
0C91 9E         DIV     YA,X
0C92 C4 1E      MOV     $1E,A
0C94 DD         MOV     A,Y
0C95 28 07      AND     A,#$07
0C97 9F         XCN     A
0C98 04 1E      OR      A,$1E
0C9A 08 80      OR      A,#$80
0C9C FD         MOV     Y,A
0C9D CE         POP     X
0C9E 4D         PUSH    X
0C9F 7D         MOV     A,X
0CA0 9F         XCN     A
0CA1 5C         LSR     A
0CA2 08 05      OR      A,#$05  ; voice ADSR(1) DSP reg
0CA4 5D         MOV     X,A
0CA5 DD         MOV     A,Y
0CA6 C9 F2 00   MOV     $00F2,X
0CA9 C5 F3 00   MOV     $00F3,A
0CAC 4D         PUSH    X
0CAD EE         POP     Y
0CAE CE         POP     X
0CAF FC         INC     Y
0CB0 3F D5 0C   CALL    $0CD5
0CB3 CC F2 00   MOV     $00F2,Y ; voice ADSR(2) DSP reg
0CB6 4D         PUSH    X
0CB7 6D         PUSH    Y
0CB8 8D 00      MOV     Y,#$00
0CBA CD 1E      MOV     X,#$1E
0CBC 9E         DIV     YA,X
0CBD FC         INC     Y
0CBE FC         INC     Y
0CBF CB 1E      MOV     $1E,Y
0CC1 9F         XCN     A
0CC2 1C         ASL     A
0CC3 04 1E      OR      A,$1E
0CC5 EE         POP     Y
0CC6 CE         POP     X
0CC7 C5 F3 00   MOV     $00F3,A
0CCA FC         INC     Y
0CCB 3F D5 0C   CALL    $0CD5
0CCE CC F2 00   MOV     $00F2,Y ; voice GAIN DSP reg
0CD1 C5 F3 00   MOV     $00F3,A
0CD4 6F         RET
; get next vbyte into A; don't touch Y
0CD5 E7 30      MOV     A,[$30+X]
0CD7 BB 30      INC     $30+X
0CD9 D0 02      BNE     $0CDD
0CDB BB 31      INC     $31+X
0CDD 6F         RET
; vcmd FC-FE
0CDE 6F         RET
;
0CDF F4 A0      MOV     A,$A0+X
0CE1 D0 31      BNE     $0D14
0CE3 E7 30      MOV     A,[$30+X]
0CE5 68 F9      CMP     A,#$F9
0CE7 D0 2B      BNE     $0D14
0CE9 3F 6B 0A   CALL    $0A6B
0CEC 3F 69 0A   CALL    $0A69
; vcmd F9 - portamento?
0CEF D4 A1      MOV     $A1+X,A
0CF1 3F 69 0A   CALL    $0A69
0CF4 D4 A0      MOV     $A0+X,A
0CF6 3F 69 0A   CALL    $0A69
0CF9 60         CLRC
0CFA 95 F0 02   ADC     A,$02F0+X
; calc portamento delta?
0CFD 28 7F      AND     A,#$7F
0CFF D5 80 03   MOV     $0380+X,A
0D02 80         SETC
0D03 B5 61 03   SBC     A,$0361+X
0D06 FB A0      MOV     Y,$A0+X
0D08 6D         PUSH    Y
0D09 CE         POP     X
0D0A 3F 20 0D   CALL    $0D20
0D0D D5 70 03   MOV     $0370+X,A
0D10 DD         MOV     A,Y
0D11 D5 71 03   MOV     $0371+X,A
0D14 6F         RET
; $10/1 = $0360/1+X
0D15 F5 61 03   MOV     A,$0361+X
0D18 C4 11      MOV     $11,A
0D1A F5 60 03   MOV     A,$0360+X
0D1D C4 10      MOV     $10,A
0D1F 6F         RET
; correct for negative difference
0D20 ED         NOTC
0D21 6B 12      ROR     $12
0D23 10 03      BPL     $0D28
0D25 48 FF      EOR     A,#$FF
0D27 BC         INC     A
0D28 8D 00      MOV     Y,#$00
0D2A 9E         DIV     YA,X
0D2B 2D         PUSH    A
0D2C E8 00      MOV     A,#$00
0D2E 9E         DIV     YA,X
0D2F EE         POP     Y
0D30 F8 44      MOV     X,$44
0D32 F3 12 06   BBC     $12,#7,$0D3B
0D35 DA 14      MOVW    $14,YA
0D37 BA 0E      MOVW    YA,$0E
0D39 9A 14      SUBW    YA,$14   ; YA = -YA
0D3B 6F         RET
; vcmd dispatch table (0a57)
0D3C 9B 0A  ; E0 - instrument
0D3E 0D 0B  ; E1 - pan
0D40 35 0B  ; E2 - pan fade
0D42 55 0B  ; E3
0D44 7C 0B  ; E4
0D46 8C 0B  ; E5
0D48 9B 0B  ; E6
0D4A ED 0B  ; E7
0D4C F1 0B  ; E8 - nop
0D4E F2 0B  ; E9 - nop
0D50 F3 0B  ; EA - voice transpose
0D52 F7 0B  ; EB - tremolo
0D54 03 0C  ; EC - tremolo off
0D56 24 0C  ; ED - voice volume
0D58 2D 0C  ; EE - voice volume fade
0D5A 4A 0C  ; EF - repeat
0D5C 6C 0B  ; F0
0D5E 06 0C  ; F1
0D60 0A 0C  ; F2
0D62 20 0C  ; F3
0D64 46 0C  ; F4 - detune
0D66 84 0C  ; F5 - echo (disable)
0D68 84 0C  ; F6 - echo (disable)
0D6A 84 0C  ; F7 - echo (disable)
0D6C 84 0C  ; F8 - echo (disable)
0D6E EF 0C  ; F9
0D70 87 0C  ; FA - nop
0D72 88 0C  ; FB - set envelope (ADSR/GAIN)
0D74 DE 0C  ; FC - nop
0D76 DE 0C  ; FD - nop
0D78 DE 0C  ; FE - nop
; vcmd length table
0D7A 01 01 02 03  02 00 03 01  02 01 01 03  00 01 02 03
0D8A 01 03 03 00  01 03 00 03  03 03 01 03  00 00 00
; voice volume fade
0D99 F4 90      MOV     A,$90+X
0D9B F0 09      BEQ     $0DA6
0D9D E8 00      MOV     A,#$00
0D9F 8D 03      MOV     Y,#$03
0DA1 9B 90      DEC     $90+X
0DA3 3F 48 0E   CALL    $0E48
0DA6 FB C1      MOV     Y,$C1+X
0DA8 F0 23      BEQ     $0DCD
0DAA F5 E0 02   MOV     A,$02E0+X
0DAD DE C0 1B   CBNE    $C0+X,$0DCB
0DB0 09 47 5E   OR      $5E,$47
0DB3 F5 D0 02   MOV     A,$02D0+X
0DB6 10 07      BPL     $0DBF
0DB8 FC         INC     Y
0DB9 D0 04      BNE     $0DBF
0DBB E8 80      MOV     A,#$80
0DBD 2F 04      BRA     $0DC3
0DBF 60         CLRC
0DC0 95 D1 02   ADC     A,$02D1+X
0DC3 D5 D0 02   MOV     $02D0+X,A
0DC6 3F 8F 10   CALL    $108F
0DC9 2F 07      BRA     $0DD2
0DCB BB C0      INC     $C0+X
0DCD E8 FF      MOV     A,#$FF
0DCF 3F 9A 10   CALL    $109A
0DD2 F4 91      MOV     A,$91+X
0DD4 F0 09      BEQ     $0DDF
0DD6 E8 30      MOV     A,#$30
0DD8 8D 03      MOV     Y,#$03
0DDA 9B 91      DEC     $91+X
0DDC 3F 48 0E   CALL    $0E48
0DDF E4 47      MOV     A,$47
0DE1 24 5E      AND     A,$5E
0DE3 F0 62      BEQ     $0E47
0DE5 F5 31 03   MOV     A,$0331+X
0DE8 FD         MOV     Y,A
0DE9 F5 30 03   MOV     A,$0330+X
0DEC DA 10      MOVW    $10,YA
; set voice volume DSP from $10/1
0DEE 7D         MOV     A,X
0DEF 9F         XCN     A
0DF0 5C         LSR     A
0DF1 C4 12      MOV     $12,A       ; $12 = DSP reg voice volume L
0DF3 EB 11      MOV     Y,$11
0DF5 F6 AB 10   MOV     A,$10AB+Y
0DF8 80         SETC
0DF9 B6 AA 10   SBC     A,$10AA+Y
0DFC EB 10      MOV     Y,$10
0DFE CF         MUL     YA
0DFF DD         MOV     A,Y
0E00 EB 11      MOV     Y,$11
0E02 60         CLRC
0E03 96 AA 10   ADC     A,$10AA+Y
0E06 FD         MOV     Y,A
0E07 F5 21 03   MOV     A,$0321+X
0E0A CF         MUL     YA
0E0B F5 51 03   MOV     A,$0351+X
0E0E 1C         ASL     A
0E0F 13 12 01   BBC     $12,#0,$0E13
0E12 1C         ASL     A
0E13 DD         MOV     A,Y
0E14 90 03      BCC     $0E19
0E16 48 FF      EOR     A,#$FF
0E18 BC         INC     A
0E19 FD         MOV     Y,A
0E1A F5 E1 02   MOV     A,$02E1+X
0E1D 10 15      BPL     $0E34
0E1F DD         MOV     A,Y
0E20 80         SETC
0E21 B5 F1 02   SBC     A,$02F1+X
0E24 90 0C      BCC     $0E32
0E26 2D         PUSH    A
0E27 EB 0D      MOV     Y,$0D
0E29 CF         MUL     YA
0E2A CB 1E      MOV     $1E,Y
0E2C AE         POP     A
0E2D 80         SETC
0E2E A4 1E      SBC     A,$1E
0E30 B0 03      BCS     $0E35
0E32 8D 00      MOV     Y,#$00
0E34 DD         MOV     A,Y
0E35 EB 12      MOV     Y,$12
0E37 3F 1D 07   CALL    $071D   ; set volume DSP reg
0E3A 8D 14      MOV     Y,#$14
0E3C E8 00      MOV     A,#$00
0E3E 9A 10      SUBW    YA,$10
0E40 DA 10      MOVW    $10,YA
0E42 AB 12      INC     $12     ; do volume R
0E44 33 12 AC   BBC     $12,#1,$0DF3
0E47 6F         RET
; add delta in [YA+10]
0E48 09 47 5E   OR      $5E,$47
0E4B DA 14      MOVW    $14,YA
0E4D DA 16      MOVW    $16,YA
0E4F 4D         PUSH    X
0E50 EE         POP     Y
0E51 60         CLRC
0E52 D0 0A      BNE     $0E5E
0E54 98 1F 16   ADC     $16,#$1F
0E57 E8 00      MOV     A,#$00
0E59 D7 14      MOV     [$14]+Y,A
0E5B FC         INC     Y
0E5C 2F 09      BRA     $0E67
0E5E 98 10 16   ADC     $16,#$10
0E61 3F 65 0E   CALL    $0E65
0E64 FC         INC     Y
0E65 F7 14      MOV     A,[$14]+Y
0E67 97 16      ADC     A,[$16]+Y
0E69 D7 14      MOV     [$14]+Y,A
0E6B 6F         RET
; voice lookahead?
0E6C F4 71      MOV     A,$71+X
0E6E F0 6C      BEQ     $0EDC
0E70 9B 71      DEC     $71+X
0E72 F0 05      BEQ     $0E79
0E74 E8 02      MOV     A,#$02
0E76 DE 70 63   CBNE    $70+X,$0EDC
0E79 F4 80      MOV     A,$80+X
0E7B C4 17      MOV     $17,A
0E7D F4 30      MOV     A,$30+X
0E7F FB 31      MOV     Y,$31+X
0E81 DA 14      MOVW    $14,YA
0E83 8D 00      MOV     Y,#$00
0E85 F7 14      MOV     A,[$14]+Y
0E87 F0 1C      BEQ     $0EA5
0E89 30 05      BMI     $0E90
0E8B FC         INC     Y
0E8C F7 14      MOV     A,[$14]+Y
0E8E 10 FB      BPL     $0E8B
0E90 68 C8      CMP     A,#$C8  ; tie
0E92 F0 48      BEQ     $0EDC
0E94 68 EF      CMP     A,#$EF  ; goto
0E96 F0 2D      BEQ     $0EC5
0E98 68 E0      CMP     A,#$E0
0E9A 90 36      BCC     $0ED2
0E9C 6D         PUSH    Y
0E9D FD         MOV     Y,A
0E9E AE         POP     A
0E9F 96 9A 0C   ADC     A,$0C9A+Y
0EA2 FD         MOV     Y,A
0EA3 2F E0      BRA     $0E85
0EA5 E4 17      MOV     A,$17
0EA7 F0 29      BEQ     $0ED2
0EA9 8B 17      DEC     $17
0EAB D0 0E      BNE     $0EBB
0EAD C8 0C      CMP     X,#$0C
0EAF B0 21      BCS     $0ED2
0EB1 F5 31 02   MOV     A,$0231+X
0EB4 2D         PUSH    A
0EB5 F5 30 02   MOV     A,$0230+X
0EB8 EE         POP     Y
0EB9 2F C6      BRA     $0E81
0EBB F5 41 02   MOV     A,$0241+X
0EBE 2D         PUSH    A
0EBF F5 40 02   MOV     A,$0240+X
0EC2 EE         POP     Y
0EC3 2F BC      BRA     $0E81
0EC5 FC         INC     Y
0EC6 F7 14      MOV     A,[$14]+Y
0EC8 2D         PUSH    A
0EC9 FC         INC     Y
0ECA F7 14      MOV     A,[$14]+Y
0ECC FD         MOV     Y,A
0ECD AE         POP     A
0ECE 7A 4B      ADDW    YA,$4B
0ED0 2F AF      BRA     $0E81
0ED2 E4 47      MOV     A,$47
0ED4 4E 1D 00   TCLR1   $001D
0ED7 8D 5C      MOV     Y,#$5C
0ED9 3F 1D 07   CALL    $071D   ; key off voice NOW
0EDC F2 13      CLR1    $13.#7
0EDE F4 A0      MOV     A,$A0+X ; add portamento delta
0EE0 F0 13      BEQ     $0EF5
0EE2 F4 A1      MOV     A,$A1+X
0EE4 F0 04      BEQ     $0EEA
0EE6 9B A1      DEC     $A1+X
0EE8 2F 0B      BRA     $0EF5
0EEA E2 13      SET1    $13.#7
0EEC E8 60      MOV     A,#$60
0EEE 8D 03      MOV     Y,#$03
0EF0 9B A0      DEC     $A0+X
0EF2 3F 4B 0E   CALL    $0E4B
0EF5 3F 15 0D   CALL    $0D15   ; $10/1 = $360/1+X
0EF8 F4 B1      MOV     A,$B1+X
0EFA F0 78      BEQ     $0F74
0EFC F5 B0 02   MOV     A,$02B0+X
0EFF DE B0 70   CBNE    $B0+X,$0F72
0F02 F5 00 01   MOV     A,$0100+X
0F05 75 B1 02   CMP     A,$02B1+X
0F08 D0 05      BNE     $0F0F
0F0A F5 C1 02   MOV     A,$02C1+X
0F0D 2F 0D      BRA     $0F1C
0F0F 40         SETP
0F10 BB 00      INC     $00+X
0F12 20         CLRP
0F13 FD         MOV     Y,A
0F14 F0 02      BEQ     $0F18
0F16 F4 B1      MOV     A,$B1+X
0F18 60         CLRC
0F19 95 C0 02   ADC     A,$02C0+X
0F1C D4 B1      MOV     $B1+X,A
0F1E F5 A0 02   MOV     A,$02A0+X
0F21 60         CLRC
0F22 95 A1 02   ADC     A,$02A1+X
0F25 D5 A0 02   MOV     $02A0+X,A
;?
0F28 C4 12      MOV     $12,A
0F2A 1C         ASL     A
0F2B 1C         ASL     A
0F2C 90 02      BCC     $0F30
0F2E 48 FF      EOR     A,#$FF
0F30 FD         MOV     Y,A
0F31 F4 B1      MOV     A,$B1+X
0F33 68 F1      CMP     A,#$F1
0F35 90 05      BCC     $0F3C
0F37 28 0F      AND     A,#$0F
0F39 CF         MUL     YA
0F3A 2F 04      BRA     $0F40
0F3C CF         MUL     YA
0F3D DD         MOV     A,Y
0F3E 8D 00      MOV     Y,#$00
0F40 3F 7A 10   CALL    $107A
0F43 F5 71 02   MOV     A,$0271+X
0F46 F0 27      BEQ     $0F6F
0F48 BB 20      INC     $20+X
0F4A F4 20      MOV     A,$20+X
0F4C 75 70 02   CMP     A,$0270+X
0F4F D0 1E      BNE     $0F6F
0F51 E8 00      MOV     A,#$00
0F53 D4 20      MOV     $20+X,A
0F55 F4 21      MOV     A,$21+X
0F57 28 7F      AND     A,#$7F
0F59 4D         PUSH    X
0F5A 5D         MOV     X,A
0F5B F5 86 0F   MOV     A,$0F86+X
0F5E C4 12      MOV     $12,A
0F60 FD         MOV     Y,A
0F61 CE         POP     X
0F62 BB 21      INC     $21+X
0F64 F5 71 02   MOV     A,$0271+X
0F67 10 02      BPL     $0F6B
0F69 48 FF      EOR     A,#$FF
0F6B CF         MUL     YA
0F6C 3F 7A 10   CALL    $107A
0F6F 5F B3 06   JMP     $06B3
0F72 BB B0      INC     $B0+X
0F74 E3 13 CC   BBS     $13,#7,$0F43
0F77 F5 71 02   MOV     A,$0271+X
0F7A F0 09      BEQ     $0F85
0F7C BB 20      INC     $20+X
0F7E F4 20      MOV     A,$20+X
0F80 75 70 02   CMP     A,$0270+X
0F83 F0 CC      BEQ     $0F51
0F85 6F         RET
; table for above routine
0F86 FE 04 FD FC  FE 01 FB FF  FA 02 01 01  FD 01 07 02
0F96 07 02 04 02  08 07 02 FD  00 04 01 05  06 07 03 00
0FA6 FB 03 02 02  FE 02 08 03  01 07 00 FF  01 04 FE 02
0FB6 07 03 04 02  08 07 03 FE  01 05 02 06  07 08 03 00
0FC6 FB 03 02 03  FE 02 08 03  08 04 05 03  09 05 01 FC
0FD6 FA 00 F9 F8  FA FD F7 FB  FE 02 FF 03  04 05 FE 00
0FE6 FB 03 02 02  FE 01 03 FF  04 FF 01 FF  05 04 00 FB
0FF6 FE 02 FF 03  04 05 00 FD  FB 01 FA F9  FB FE FA 00
;
1006 F2 13      CLR1    $13.#7
1008 F4 C1      MOV     A,$C1+X
100A F0 09      BEQ     $1015
100C F5 E0 02   MOV     A,$02E0+X
100F DE C0 03   CBNE    $C0+X,$1015
1012 3F 82 10   CALL    $1082
1015 F5 31 03   MOV     A,$0331+X
1018 FD         MOV     Y,A
1019 F5 30 03   MOV     A,$0330+X
101C DA 10      MOVW    $10,YA
101E F4 91      MOV     A,$91+X
1020 F0 0A      BEQ     $102C
1022 F5 41 03   MOV     A,$0341+X
1025 FD         MOV     Y,A
1026 F5 40 03   MOV     A,$0340+X
1029 3F 64 10   CALL    $1064
102C F3 13 03   BBC     $13,#7,$1032
102F 3F EE 0D   CALL    $0DEE   ; set voice DSP vol from $10/11?
1032 F2 13      CLR1    $13.#7
1034 3F 15 0D   CALL    $0D15
1037 F4 A0      MOV     A,$A0+X
1039 F0 0E      BEQ     $1049
103B F4 A1      MOV     A,$A1+X
103D D0 0A      BNE     $1049
103F F5 71 03   MOV     A,$0371+X
1042 FD         MOV     Y,A
1043 F5 70 03   MOV     A,$0370+X
1046 3F 64 10   CALL    $1064
1049 F4 B1      MOV     A,$B1+X
104B D0 03      BNE     $1050
104D 5F 74 0F   JMP     $0F74
1050 F5 B0 02   MOV     A,$02B0+X
1053 DE B0 F7   CBNE    $B0+X,$104D
1056 FB D0      MOV     Y,$D0+X
1058 F5 A1 02   MOV     A,$02A1+X
105B CF         MUL     YA
105C DD         MOV     A,Y
105D 60         CLRC
105E 95 A0 02   ADC     A,$02A0+X
1061 5F 28 0F   JMP     $0F28
;
1064 E2 13      SET1    $13.#7
1066 CB 12      MOV     $12,Y
1068 3F 32 0D   CALL    $0D32
106B 6D         PUSH    Y
106C FB D0      MOV     Y,$D0+X
106E CF         MUL     YA
106F CB 14      MOV     $14,Y
1071 8F 00 15   MOV     $15,#$00
1074 FB D0      MOV     Y,$D0+X
1076 AE         POP     A
1077 CF         MUL     YA
1078 7A 14      ADDW    YA,$14
107A 3F 32 0D   CALL    $0D32
107D 7A 10      ADDW    YA,$10
107F DA 10      MOVW    $10,YA
1081 6F         RET
;
1082 E2 13      SET1    $13.#7
1084 FB D0      MOV     Y,$D0+X
1086 F5 D1 02   MOV     A,$02D1+X
1089 CF         MUL     YA
108A DD         MOV     A,Y
108B 60         CLRC
108C 95 D0 02   ADC     A,$02D0+X
108F 1C         ASL     A
1090 90 02      BCC     $1094
1092 48 FF      EOR     A,#$FF
1094 FB C1      MOV     Y,$C1+X
1096 CF         MUL     YA
1097 DD         MOV     A,Y
1098 48 FF      EOR     A,#$FF
109A FD         MOV     Y,A
109B F5 10 02   MOV     A,$0210+X
109E CF         MUL     YA
109F F5 01 03   MOV     A,$0301+X
10A2 CF         MUL     YA
10A3 DD         MOV     A,Y
10A4 CF         MUL     YA
10A5 DD         MOV     A,Y
10A6 D5 21 03   MOV     $0321+X,A
10A9 6F         RET
; log volume table?
10AA 00 01 03 07  0D 15 1E 29  34 42 51 5E  67 6E 73 77
10BA 7A 7C 7D 7E  7F
; shadow reg map
10BF 6C 4C 5C 3D 2D 5C
10C5 48 45 0E 49 4A 46
;    || || || || || \\ 46 = 5C key off
;    || || || || \\=== 4A = 2D pitchmod vbits
;    || || || \\====== 49 = 3D noise vbits
;    || || \\========= 0E = 5C key off
;    || \\============ 45 = 4C key on
;    \\=============== 48 = 6C FLG
;
; pitch table
10CB 5F 08
10CD DE 08
10CF 65 09
10D1 F4 09
10D3 8C 0A
10D5 2C 0B
10D7 D6 0B
10D9 8B 0C
10DB 4A 0D
10DD 14 0E
10DF EA 0E
10E1 CD 0F
10E3 BE 10
; (0a03) for 0201+X
10E5 00 E6 F0 F5 FA FC FE FF
; (0a0d) for 0210+X
10ED 19 32 4C 65  72 7F 8C 98  A5 B2 BF CB  D8 E5 F2 FC
;
10FD 85 13
10FF 62 13
1101 A1 13
1103 C3 13
1105 1E 1C
1107 33 1C
1109 A1 1C
110B EE 1C
110D 4C 17
110F 89 17
1111 A2 17
1113 2A 17
1115 B4 1F
1117 9A 16
1119 CC 15
111B 0F 16
111D F7 1E
111F 40 1D
1121 5F 22
1123 38 22
1125 43 15
1127 2A 16
1129 1D 13
112B A2 15
112D 50 16
112F A9 1D
1131 D5 19
1133 47 19
1135 90 1D
1137 4F 1C
1139 27 19
113B 6D 1B
113D 82 1B
113F 13 1D
1141 72 15
1143 C5 1C
1145 DD 1B
1147 74 1D
1149 DD 1F
114B 95 20
114D D6 20
114F 00 00
1151 00 00
1153 00 00
1155 00 00
1157 00 00
1159 00 00
115B 00 00
115D 00 00
115F 00 00
1161 00 00
1163 00 00
1165 00 00
1167 00 00
1169 00 00
116B 00 00
116D 00 00
116F 00 00
1171 00 00
1173 00 00
1175 00 00
1177 00 00
1179 7A 21
117B 83 1A
117D 00 00
117F 00 00
1180 00 00
1181 00 00
1182 00 00
1183 F4 1A
1185 78 1C
1187 60 1E
1189 61 13
118B 00 00 
118D 00 00
118F 00 00
1191 00 00
1193 00 00
1195 00 00
1197 00 00
1199 00 00
119B 00 00
119D 00 00
119F 00 00
11A1 00 00
11A3 00 00
11A5 00 00
11A7 00 00
11A9 00 00
11AB 00 00
11AD 00 00
11AF 00 00
11B1 00 00
11B3 00 00
11B5 00 00
11B7 00 00
11B9 00 00
11BB 18 1A
11BD 65 19
11BF 3C 1F
11C1 4A 14
11C3 9C 1A
11C5 E2 13
11C7 EC 16
11C9 9C 14
11CB F2 1D
11CD 7F 1E
11CF 46 21
11D1 5E 21
11D3 86 21
11D5 AE 21
11D7 D2 21
11D9 FA 21
11DB 12 22
11DD 13 18
11DF 5A 18
11E1 83 18
11E3 D5 18
11E5 AC 18
11E7 FE 18
11E9 F4 1F
11EB 0A 21
11ED 00 00
11EF 00 00
11F1 00 00
11F3 09 1B
11F5 99 1B
11F7 C4 17
11F9 DE 14
; song ptrs
11FB 00 30
11FD 00 3C
11FF 97 22
1201 DC 23
1203 EE 2A
1205 F9 2B
1207 21 2F
1209 00
120A 00         NOP
120B 00         NOP
120C 00         NOP
120D 00         NOP
120E 00         NOP
120F 00         NOP
1210 00         NOP
1211 00         NOP
1212 00         NOP
1213 00         NOP
1214 00         NOP
1215 00         NOP
1216 00         NOP
1217 00         NOP
1218 00         NOP
1219 00         NOP
121A 00         NOP
121B 00         NOP
121C 00         NOP
121D 00         NOP
121E 00         NOP
121F 00         NOP
1220 00         NOP
1221 00         NOP
1222 00         NOP
1223 00         NOP
1224 00         NOP
1225 00         NOP
1226 00         NOP
1227 00         NOP
1228 00         NOP
1229 00         NOP
122A 00         NOP
122B 00         NOP
122C 00         NOP
122D 00         NOP
122E 00         NOP
122F 00         NOP
1230 00         NOP
1231 00         NOP
1232 00         NOP
1233 00         NOP
1234 00         NOP
1235 00         NOP
1236 00         NOP
1237 00         NOP
1238 00         NOP
1239 00         NOP
123A 00         NOP
123B 00 30  ; song buffer A
123D 00 3C  ; song buffer B
123F F4 25
1241 37 27  ; konami sound
1243 C4 28
1245 F2 29  ; title theme
1247 5E 2C
1249 AF 2D
; instrument tables
; SRCN, ADSR1, ADSR2, GAIN, tuning factor (word, bigendian)
124B 00 8F 7F B8 0F 00
1251 01 FF E0 B8 04 00
1257 02 FF F6 B8 03 C0
125D 03 FF E0 B8 06 00
1263 04 FF E0 B8 0F C0
1269 05 FF E0 B8 07 A8
126F 06 FF E0 B8 07 80
1275 07 FF E9 B8 03 00
127B 08 FF F3 B8 03 00
1281 09 FF E0 B8 07 00
1287 0A FF E0 B8 03 00
128D 0B FF EB B8 07 00
1293 0C FF EA B8 07 00
1299 0D FF E0 B8 02 00
129F 0E FF E0 B8 07 00
12A5 0F FF E0 B8 01 00
12AB 10 FF E0 B8 0B 00
12B1 11 FF E0 B8 05 00
12B7 12 FF E0 B8 05 00
12BD 13 FF E0 B8 CF 00
12C3 14 FF E0 B8 01 E8
12C9 15 FF E0 B8 07 A8
12CF 16 FF EF B8 07 A8
12D5 17 FF E0 B8 07 A8
12DB 18 9F 70 B8 0F E0
12E1 19 AF 72 B8 12 90
12E7 1A AF 72 B8 12 90
12ED 1B AF 72 B8 12 90
12F3 1C FF F6 B8 12 90
12F9 1D FF E0 B8 07 A8
12FF 1E FF E0 B8 03 0E
1305 1F FF E0 B8 03 0D
130B 20 FF E0 B8 03 0F
1311 21 FF E0 B8 03 0E
1317 22 FF E0 B8 07 A8
;
131D 1F 13 E0   JMP     [$E013+X]
1320 06         OR      A,(X)
1321 ED         NOTC
1322 F5 E7 7B   MOV     A,$7BE7+X
1325 FB FF      MOV     Y,$FF+X
1327 00         NOP
1328 7F         RETI
1329 E3 00 FF   BBS     $00,#7,$132B
132C FF         STOP
132D 0D         PUSH    PSW
132E 6F         RET
132F B7 F9      SBC     A,[$F9]+Y
1331 00         NOP
1332 0D         PUSH    PSW
1333 87 ED      ADC     A,[$ED+X]
1335 FF         STOP
1336 E0         CLRV
1337 0E EE 2F   TSET1   $2FEE
133A A0         EI
133B E3 00 FF   BBS     $00,#7,$133D
133E F0 E1      BEQ     $1321
1340 05 E2 3C   OR      A,$3CE2
1343 0F         BRK
1344 23 0F 9D   BBS     $0F,#1,$12E4
1347 F9 00      MOV     X,$00+Y
1349 23 80 0C   BBS     $80,#1,$1358
134C 8C F9 00   DEC     $00F9
134F 0C 98 EE   ASL     $EE98
1352 AF         MOV     (X)+,A
1353 28 E1      AND     A,#$E1
1355 0A E5 23   OR1     C,$03E5.#1
1358 9D         MOV     X,SP
1359 F9 00      MOV     X,$00+Y
135B 23 80 E6   BBS     $80,#1,$1344
135E 05 00 00   OR      A,$0000
1361 00         NOP
;
1362 64 13      CMP     A,$13
1364 E1         TCALL   $E
1365 0C E2 80   ASL     $80E2
1368 08 E0      OR      A,#$E0
136A 08 ED      OR      A,#$ED
136C 78 E7 7B   CMP     $7B,#$E7
136F FB 7B      MOV     Y,$7B+X
1371 4E 00 EA   TCLR1   $EA00
1374 FF         STOP
1375 E5 01 0F   MOV     A,$0F01
1378 BF         MOV     A,(X)+
1379 BD         MOV     SP,X
137A BE         DAS     A
137B BF         MOV     A,(X)+
137C C0         DI
137D C1         TCALL   $C
137E C2 C3      SET1    $C3.#6
1380 E6         MOV     A,(X)
1381 10 00      BPL     $1383
1383 06         OR      A,(X)
1384 00         NOP
;
1385 87 13      ADC     A,[$13+X]
1387 E0         CLRV
1388 08 ED      OR      A,#$ED
138A 96 E7 7B   ADC     A,$7BE7+Y
138D FB 79      MOV     Y,$79+X
138F 4E 7F E1   TCLR1   $E17F
1392 0B E2      ASL     $E2
1394 5A 09      CMPW    YA,$09
1396 E5 01 0F   MOV     A,$0F01
1399 B4 B7      SBC     A,$B7+X
139B BB E6      INC     $E6+X
139D 1E 00 F2   CMP     X,$F200
13A0 00         NOP
13A1 A3 13 E1   BBS     $13,#5,$1385
13A4 0F         BRK
13A5 E2 14      SET1    $14.#7
13A7 05 E0 0F   OR      A,$0FE0
13AA ED         NOTC
13AB A0         EI
13AC E7 1A      MOV     A,[$1A+X]
13AE FB 51      MOV     Y,$51+X
13B0 6C 7F EA   ROR     $EA7F
13B3 0A F2 00   OR1     C,$00F2.#0
13B6 03 05 E5   BBS     $05,#0,$139E
13B9 02 0B      SET1    $0B.#0
13BB C0         DI
13BC BC         INC     A
13BD BE         DAS     A
13BE E6         MOV     A,(X)
13BF 0C 00 00   ASL     $0000
13C2 00         NOP
13C3 C5 13 E1   MOV     $E113,A
13C6 0E E2 32   TSET1   $32E2
13C9 06         OR      A,(X)
13CA E0         CLRV
13CB 0C ED 96   ASL     $96ED
13CE E7 34      MOV     A,[$34+X]
13D0 FB 78      MOV     Y,$78+X
13D2 A6         SBC     A,(X)
13D3 7F         RETI
13D4 E5 F4 00   MOV     A,$00F4
13D7 01         TCALL   $0
13D8 0F         BRK
13D9 BC         INC     A
13DA F4 50      MOV     A,$50+X
13DC BC         INC     A
13DD E6         MOV     A,(X)
13DE 28 00      AND     A,#$00
13E0 00         NOP
13E1 00         NOP
13E2 E6         MOV     A,(X)
13E3 13 1B 14   BBC     $1B,#0,$13FA
13E6 E1         TCALL   $E
13E7 07 E2      OR      A,[$E2+X]
13E9 82 0D      SET1    $0D.#4
13EB E0         CLRV
13EC 09 ED D7   OR      $D7,$ED
13EF E7 39      MOV     A,[$39+X]
13F1 FB 64      MOV     Y,$64+X
13F3 E4 00      MOV     A,$00
13F5 EA 0C 1E   NOT1    $1E0C.#0
13F8 6F         RET
13F9 93 F9 00   BBC     $F9,#4,$13FC
13FC 1E C0 1C   CMP     X,$1CC0
13FF 67 97      CMP     A,[$97+X]
1401 F9 00      MOV     X,$00+Y
1403 1C         ASL     A
1404 BE         DAS     A
1405 1A 65      DECW    $65
1407 9B F9      DEC     $F9+X
1409 00         NOP
140A 1A BC      DECW    $BC
140C 18 63 9F   OR      $9F,#$63
140F F9 00      MOV     X,$00+Y
1411 18 BA 16   OR      $16,#$BA
1414 62 A3      SET1    $A3.#3
1416 F9 00      MOV     X,$00+Y
1418 16 B8 00   OR      A,$00B8+Y
141B E1         TCALL   $E
141C 0D         PUSH    PSW
141D E2 82      SET1    $82.#7
141F 07 E0      OR      A,[$E0+X]
1421 0E ED D7   TSET1   $D7ED
1424 E7 39      MOV     A,[$39+X]
1426 1E 6F 93   CMP     X,$936F
1429 F9 00      MOV     X,$00+Y
142B 1E C0 1C   CMP     X,$1CC0
142E 67 97      CMP     A,[$97+X]
1430 F9 00      MOV     X,$00+Y
1432 1C         ASL     A
1433 BE         DAS     A
1434 1A 65      DECW    $65
1436 9B F9      DEC     $F9+X
1438 00         NOP
1439 1A BC      DECW    $BC
143B 18 63 9F   OR      $9F,#$63
143E F9 00      MOV     X,$00+Y
1440 18 BA 16   OR      $16,#$BA
1443 62 A3      SET1    $A3.#3
1445 F9 00      MOV     X,$00+Y
1447 16 B8 00   OR      A,$00B8+Y
144A 4E 14 73   TCLR1   $7314
144D 14 E1      OR      A,$E1+X
144F 0E E2 3C   TSET1   $3CE2
1452 06         OR      A,(X)
1453 E0         CLRV
1454 08 ED      OR      A,#$ED
1456 BE         DAS     A
1457 E7 1F      MOV     A,[$1F+X]
1459 FB FF      MOV     Y,$FF+X
145B 00         NOP
145C 7F         RETI
145D EE         POP     Y
145E 3C         ROL     A
145F 00         NOP
1460 28 6F      AND     A,#$6F
1462 A6         SBC     A,(X)
1463 F9 00      MOV     X,$00+Y
1465 28 C0      AND     A,#$C0
1467 ED         NOTC
1468 28 EE      AND     A,#$EE
146A 14 00      OR      A,$00+X
146C 14 B2      OR      A,$B2+X
146E F9 00      MOV     X,$00+Y
1470 28 C0      AND     A,#$C0
1472 00         NOP
1473 E1         TCALL   $E
1474 0E E2 3C   TSET1   $3CE2
1477 06         OR      A,(X)
1478 E0         CLRV
1479 11         TCALL   $1
147A ED         NOTC
147B A0         EI
147C E7 1F      MOV     A,[$1F+X]
147E FB 82      MOV     Y,$82+X
1480 D2 00      CLR1    $00.#6
1482 EE         POP     Y
1483 44 00      EOR     A,$00
1485 F4 50      MOV     A,$50+X
1487 EA 0C 28   NOT1    $080C.#1
148A 6F         RET
148B A3 F9 00   BBS     $F9,#5,$148E
148E 28 BB      AND     A,#$BB
1490 ED         NOTC
1491 28 EE      AND     A,#$EE
1493 14 00      OR      A,$00+X
1495 14 AF      OR      A,$AF+X
1497 F9 00      MOV     X,$00+Y
1499 28 BB      AND     A,#$BB
149B 00         NOP
149C A0         EI
149D 14 BE      OR      A,$BE+X
149F 14 E1      OR      A,$E1+X
14A1 08 E2      OR      A,#$E2
14A3 30 0D      BMI     $14B2
14A5 E0         CLRV
14A6 08 ED      OR      A,#$ED
14A8 C8 E7      CMP     X,#$E7
14AA 0F         BRK
14AB EE         POP     Y
14AC 30 14      BMI     $14C2
14AE FB 7F      MOV     Y,$7F+X
14B0 E2 00      SET1    $00.#7
14B2 E5 02 7F   MOV     A,$7F02
14B5 B5 B8 BC   SBC     A,$BCB8+X
14B8 C0         DI
14B9 E6         MOV     A,(X)
14BA 04 00      OR      A,$00
14BC 00         NOP
14BD 00         NOP
14BE E1         TCALL   $E
14BF 08 E2      OR      A,#$E2
14C1 30 0D      BMI     $14D0
14C3 E0         CLRV
14C4 08 ED      OR      A,#$ED
14C6 C8 E7      CMP     X,#$E7
14C8 0F         BRK
14C9 EE         POP     Y
14CA 30 14      BMI     $14E0
14CC FB 7F      MOV     Y,$7F+X
14CE E2 00      SET1    $00.#7
14D0 E5 02 7F   MOV     A,$7F02
14D3 AD B0      CMP     Y,#$B0
14D5 B4 02      SBC     A,$02+X
14D7 6F         RET
14D8 B7 E6      SBC     A,[$E6]+Y
14DA 04 00      OR      A,$00
14DC 00         NOP
14DD 00         NOP
14DE E2 14      SET1    $14.#7
14E0 13 15 E0   BBC     $15,#0,$14C3
14E3 0B ED      ASL     $ED
14E5 E6         MOV     A,(X)
14E6 E7 25      MOV     A,[$25+X]
14E8 03 0F AA   BBS     $0F,#0,$1495
14EB 03 77 AA   BBS     $77,#0,$1498
14EE 03 0F B1   BBS     $0F,#0,$14A2
14F1 03 77 B1   BBS     $77,#0,$14A5
14F4 03 0F AE   BBS     $0F,#0,$14A5
14F7 03 77 AE   BBS     $77,#0,$14A8
14FA 03 0F B6   BBS     $0F,#0,$14B3
14FD 03 07 B6   BBS     $07,#0,$14B6
1500 03 06 B6   BBS     $06,#0,$14B9
1503 03 05 B6   BBS     $05,#0,$14BC
1506 03 04 B6   BBS     $04,#0,$14BF
1509 03 03 B6   BBS     $03,#0,$14C2
150C 03 02 B6   BBS     $02,#0,$14C5
150F 03 61 B6   BBS     $61,#0,$14C8
1512 00         NOP
1513 E0         CLRV
1514 0B ED      ASL     $ED
1516 C8 E7      CMP     X,#$E7
1518 25 F4 28   AND     A,$28F4
151B 06         OR      A,(X)
151C 0F         BRK
151D AA 03 77   MOV1    C,$1703.#3
1520 AA 03 0F   MOV1    C,$0F03.#0
1523 B1         TCALL   $B
1524 03 77 B1   BBS     $77,#0,$14D8
1527 03 0F AE   BBS     $0F,#0,$14D8
152A 03 77 AE   BBS     $77,#0,$14DB
152D 03 0F B6   BBS     $0F,#0,$14E6
1530 03 07 B6   BBS     $07,#0,$14E9
1533 03 06 B6   BBS     $06,#0,$14EC
1536 03 05 B6   BBS     $05,#0,$14EF
1539 03 04 B6   BBS     $04,#0,$14F2
153C 03 03 B6   BBS     $03,#0,$14F5
153F 03 62 B6   BBS     $62,#0,$14F8
1542 00         NOP
1543 45 15 E1   EOR     A,$E115
1546 09 E2 B3   OR      $B3,$E2
1549 0B E0      ASL     $E0
154B 08 ED      OR      A,#$ED
154D AA E7 7B   MOV1    C,$1BE7.#3
1550 EE         POP     Y
1551 B3 3C 14   BBC     $3C,#5,$1568
1554 0F         BRK
1555 BD         MOV     SP,X
1556 F9 00      MOV     X,$00+Y
1558 14 97      OR      A,$97+X
155A 13 BE F9   BBC     $BE,#0,$1556
155D 00         NOP
155E 13 9A E5   BBC     $9A,#0,$1546
1561 12 C0      CLR1    $C0.#0
1563 F9 00      MOV     X,$00+Y
1565 12 9C      CLR1    $9C.#0
1567 11         TCALL   $1
1568 C1         TCALL   $C
1569 F9 00      MOV     X,$00+Y
156B 11         TCALL   $1
156C 9F         XCN     A
156D E6         MOV     A,(X)
156E 04 00      OR      A,$00
1570 00         NOP
1571 00         NOP
1572 74 15      CMP     A,$15+X
1574 E0         CLRV
1575 11         TCALL   $1
1576 E7 7B      MOV     A,[$7B+X]
1578 ED         NOTC
1579 F0 E3      BEQ     $155E
157B 00         NOP
157C FF         STOP
157D FF         STOP
157E E4 01      MOV     A,$01
1580 FF         STOP
1581 14 6F      OR      A,$6F+X
1583 B0 F9      BCS     $157E
1585 00         NOP
1586 14 80      OR      A,$80+X
1588 E1         TCALL   $E
1589 0C E2 A0   ASL     $A0E2
158C 08 E0      OR      A,#$E0
158E 09 ED DC   OR      $DC,$ED
1591 E3 00 FF   BBS     $00,#7,$1593
1594 F0 E5      BEQ     $157B
1596 28 6D      AND     A,#$6D
1598 B0 F9      BCS     $1593
159A 00         NOP
159B 28 93      AND     A,#$93
159D E6         MOV     A,(X)
159E 04 BA      OR      A,$BA
15A0 00         NOP
15A1 00         NOP
15A2 A4 15      SBC     A,$15
15A4 E0         CLRV
15A5 0D         PUSH    PSW
15A6 ED         NOTC
15A7 C8 E7      CMP     X,#$E7
15A9 34 E4      AND     A,$E4+X
15AB 01         TCALL   $0
15AC 0A FB FF   OR1     C,$1FFB.#7
15AF 00         NOP
15B0 7F         RETI
15B1 01         TCALL   $0
15B2 0F         BRK
15B3 A8 A6      SBC     A,#$A6
15B5 A4 A1      SBC     A,$A1
15B7 9C         DEC     A
15B8 01         TCALL   $0
15B9 6F         RET
15BA 98 E2 30   ADC     $30,#$E2
15BD 0C E5 01   ASL     $01E5
15C0 0F         BRK
15C1 A2 9F      SET1    $9F.#5
15C3 9B 98      DEC     $98+X
15C5 A2 9F      SET1    $9F.#5
15C7 E6         MOV     A,(X)
15C8 08 EC      OR      A,#$EC
15CA CE         POP     X
15CB 00         NOP
15CC CE         POP     X
15CD 15 E0 07   OR      A,$07E0+X
15D0 ED         NOTC
15D1 C8 E7      CMP     X,#$E7
15D3 3E FB      CMP     X,$FB
15D5 FF         STOP
15D6 00         NOP
15D7 7F         RETI
15D8 E3 00 FF   BBS     $00,#7,$15DA
15DB FF         STOP
15DC EA F6 01   NOT1    $01F6.#0
15DF 0F         BRK
15E0 AE         POP     A
15E1 01         TCALL   $0
15E2 0D         PUSH    PSW
15E3 AB 01      INC     $01
15E5 0B A7      ASL     $A7
15E7 01         TCALL   $0
15E8 07 A4      OR      A,[$A4+X]
15EA 01         TCALL   $0
15EB 05 A0 01   OR      A,$01A0
15EE 0F         BRK
15EF B0 AB      BCS     $159C
15F1 E1         TCALL   $E
15F2 08 E2      OR      A,#$E2
15F4 40         SETP
15F5 0C E5 02   ASL     $02E5
15F8 A8 AF      SBC     A,#$AF
15FA 02 0D      SET1    $0D.#0
15FC AF         MOV     (X)+,A
15FD 02 0B      SET1    $0B.#0
15FF A3 02 09   BBS     $02,#5,$160B
1602 AA 02 07   MOV1    C,$0702.#0
1605 A6         SBC     A,(X)
1606 02 06      SET1    $06.#0
1608 A1         TCALL   $A
1609 A3 E6 04   BBS     $E6,#5,$1610
160C E2 00      SET1    $00.#7
160E 00         NOP
160F 11         TCALL   $1
1610 16 E1 09   OR      A,$09E1+Y
1613 E2 3C      SET1    $3C.#7
1615 0B E0      ASL     $E0
1617 0E ED AF   TSET1   $AFED
161A E7 7B      MOV     A,[$7B+X]
161C FB 89      MOV     Y,$89+X
161E 2F 00      BRA     $1620
1620 E5 01 0F   MOV     A,$0F01
1623 C2 C3      SET1    $C3.#6
1625 E6         MOV     A,(X)
1626 1E 00 00   CMP     X,$0000
1629 00         NOP
162A 2C 16 E0   ROL     $E016
162D 06         OR      A,(X)
162E ED         NOTC
162F F0 E7      BEQ     $1618
1631 7B EE      ROR     $EE+X
1633 FA 1E 12   MOV     $12,$1E
1636 0F         BRK
1637 A4 F9      SBC     A,$F9
1639 00         NOP
163A 12 80      CLR1    $80.#0
163C E2 DA      SET1    $DA.#7
163E 0C E0 01   ASL     $01E0
1641 ED         NOTC
1642 E6         MOV     A,(X)
1643 E5 32 6F   MOV     A,$6F32
1646 A3 F9 00   BBS     $F9,#5,$1649
1649 32 82      CLR1    $82.#1
164B E6         MOV     A,(X)
164C 04 00      OR      A,$00
164E 9D         MOV     X,SP
164F 00         NOP
1650 52 16      CLR1    $16.#2
1652 E0         CLRV
1653 06         OR      A,(X)
1654 ED         NOTC
1655 E6         MOV     A,(X)
1656 E7 7B      MOV     A,[$7B+X]
1658 EE         POP     Y
1659 66         CMP     A,(X)
165A 5A 21      CMPW    YA,$21
165C 6F         RET
165D A1         TCALL   $A
165E F9 00      MOV     X,$00+Y
1660 21         TCALL   $2
1661 81         TCALL   $8
1662 E1         TCALL   $E
1663 05 E2 15   OR      A,$15E2
1666 0F         BRK
1667 04 03      OR      A,$03
1669 8D 11      MOV     Y,#$11
166B 0F         BRK
166C A9 F9 00   SBC     $00,$F9
166F 11         TCALL   $1
1670 99         ADC     (X),(Y)
1671 E2 30      SET1    $30.#7
1673 05 30 6F   OR      A,$6F30
1676 82 F9      SET1    $F9.#4
1678 00         NOP
1679 30 C4      BMI     $163F
167B E2 30      SET1    $30.#7
167D 0F         BRK
167E ED         NOTC
167F 64 EE      CMP     A,$EE
1681 30 1E      BMI     $16A1
1683 30 0F      BMI     $1694
1685 82 F9      SET1    $F9.#4
1687 00         NOP
1688 30 C4      BMI     $164E
168A E2 30      SET1    $30.#7
168C 05 ED 3C   OR      A,$3CED
168F EE         POP     Y
1690 30 14      BMI     $16A6
1692 30 6F      BMI     $1703
1694 82 F9      SET1    $F9.#4
1696 00         NOP
1697 30 C4      BMI     $165D
1699 00         NOP
169A 9C         DEC     A
169B 16 E0 11   OR      A,$11E0+Y
169E ED         NOTC
169F B4 E7      SBC     A,$E7+X
16A1 7B F2      ROR     $F2+X
16A3 00         NOP
16A4 01         TCALL   $0
16A5 01         TCALL   $0
16A6 FB 99      MOV     Y,$99+X
16A8 D2 00      CLR1    $00.#6
16AA EE         POP     Y
16AB 30 32      BMI     $16DF
16AD E5 01 0F   MOV     A,$0F01
16B0 C2 BF      SET1    $BF.#6
16B2 01         TCALL   $0
16B3 0D         PUSH    PSW
16B4 BC         INC     A
16B5 B9         SBC     (X),(Y)
16B6 01         TCALL   $0
16B7 0C B6 01   ASL     $01B6
16BA 0B B3      ASL     $B3
16BC 01         TCALL   $0
16BD 0A B0 01   OR1     C,$01B0.#0
16C0 09 AD 01   OR      $01,$AD
16C3 08 A9      OR      A,#$A9
16C5 01         TCALL   $0
16C6 07 A7      OR      A,[$A7+X]
16C8 01         TCALL   $0
16C9 06         OR      A,(X)
16CA A4 A1      SBC     A,$A1
16CC E6         MOV     A,(X)
16CD 04 00      OR      A,$00
16CF 14 E2      OR      A,$E2+X
16D1 48 0B      EOR     A,#$0B
16D3 ED         NOTC
16D4 50 EE      BVC     $16C4
16D6 48 00      EOR     A,#$00
16D8 E5 01 0F   MOV     A,$0F01
16DB C2 BF      SET1    $BF.#6
16DD BC         INC     A
16DE B9         SBC     (X),(Y)
16DF B6 B3 B0   SBC     A,$B0B3+Y
16E2 AD A9      CMP     Y,#$A9
16E4 A7 A4      SBC     A,[$A4+X]
16E6 A1         TCALL   $A
16E7 E6         MOV     A,(X)
16E8 06         OR      A,(X)
16E9 00         NOP
16EA 14 00      OR      A,$00+X
16EC F0 16      BEQ     $1704
16EE 0E 17 E1   TSET1   $E117
16F1 0D         PUSH    PSW
16F2 E2 84      SET1    $84.#7
16F4 07 E0      OR      A,[$E0+X]
16F6 0E ED E6   TSET1   $E6ED
16F9 E7 34      MOV     A,[$34+X]
16FB FB FF      MOV     Y,$FF+X
16FD 00         NOP
16FE 7F         RETI
16FF EA 05 E5   NOT1    $0505.#7
1702 16 6F C3   OR      A,$C36F+Y
1705 F9 00      MOV     X,$00+Y
1707 14 84      OR      A,$84+X
1709 E6         MOV     A,(X)
170A 06         OR      A,(X)
170B D8 00      MOV     $00,X
170D 00         NOP
170E E1         TCALL   $E
170F 07 E2      OR      A,[$E2+X]
1711 84 0D      ADC     A,$0D
1713 E0         CLRV
1714 0C ED B4   ASL     $B4ED
1717 E7 34      MOV     A,[$34+X]
1719 FB FF      MOV     Y,$FF+X
171B 00         NOP
171C 7F         RETI
171D E5 16 6F   MOV     A,$6F16
1720 C3 F9 00   BBS     $F9,#6,$1723
1723 14 84      OR      A,$84+X
1725 E6         MOV     A,(X)
1726 06         OR      A,(X)
1727 D8 00      MOV     $00,X
1729 00         NOP
172A 2C 17 E0   ROL     $E017
172D 0D         PUSH    PSW
172E ED         NOTC
172F AA E7 1D   MOV1    C,$1DE7.#0
1732 EE         POP     Y
1733 14 1E      OR      A,$1E+X
1735 E5 01 0F   MOV     A,$0F01
1738 BC         INC     A
1739 C4 E6      MOV     $E6,A
173B 08 00      OR      A,#$00
173D 00         NOP
173E E2 09      SET1    $09.#7
1740 0B E5      ASL     $E5
1742 BC         INC     A
1743 C4 E6      MOV     $E6,A
1745 04 00      OR      A,$00
1747 00         NOP
1748 01         TCALL   $0
1749 6F         RET
174A BC         INC     A
174B 00         NOP
174C 4E 17 E7   TCLR1   $E717
174F 7B E0      ROR     $E0+X
1751 02 ED      SET1    $ED.#0
1753 DC         DEC     Y
1754 EE         POP     Y
1755 08 3C      OR      A,#$3C
1757 08 4F      OR      A,#$4F
1759 B0 F9      BCS     $1754
175B 00         NOP
175C 08 A1      OR      A,#$A1
175E E2 0A      SET1    $0A.#7
1760 0C E0 06   ASL     $06E0
1763 ED         NOTC
1764 82 0A      SET1    $0A.#4
1766 6F         RET
1767 9F         XCN     A
1768 F9 00      MOV     X,$00+Y
176A 0A C0 E2   OR1     C,$02C0.#7
176D 12 08      CLR1    $08.#0
176F E0         CLRV
1770 02 ED      SET1    $ED.#0
1772 73 EE 08   BBC     $EE,#3,$177D
1775 14 08      OR      A,$08+X
1777 4F B0      PCALL   $B0
1779 F9 00      MOV     X,$00+Y
177B 08 A1      OR      A,#$A1
177D E0         CLRV
177E 06         OR      A,(X)
177F ED         NOTC
1780 46         EOR     A,(X)
1781 0A 6F 9F   OR1     C,$1F6F.#4
1784 F9 00      MOV     X,$00+Y
1786 0A C0 00   OR1     C,$00C0.#0
1789 8B 17      DEC     $17
178B E7 3E      MOV     A,[$3E+X]
178D E0         CLRV
178E 0D         PUSH    PSW
178F FB 82      MOV     Y,$82+X
1791 00         NOP
1792 00         NOP
1793 ED         NOTC
1794 A0         EI
1795 2D         PUSH    A
1796 6F         RET
1797 8C E2 2D   DEC     $2DE2
179A 0C ED 46   ASL     $46ED
179D EE         POP     Y
179E 2D         PUSH    A
179F 28 8C      AND     A,#$8C
17A1 00         NOP
17A2 A4 17      SBC     A,$17
17A4 E0         CLRV
17A5 06         OR      A,(X)
17A6 E7 7B      MOV     A,[$7B+X]
17A8 ED         NOTC
17A9 91         TCALL   $9
17AA E3 00 FF   BBS     $00,#7,$17AC
17AD FF         STOP
17AE FB FF      MOV     Y,$FF+X
17B0 00         NOP
17B1 7F         RETI
17B2 14 6F      OR      A,$6F+X
17B4 C3 F9 00   BBS     $F9,#6,$17B7
17B7 14 98      OR      A,$98+X
17B9 E2 14      SET1    $14.#7
17BB 0C ED 46   ASL     $46ED
17BE C3 F9 00   BBS     $F9,#6,$17C1
17C1 14 98      OR      A,$98+X
17C3 00         NOP
17C4 C8 17      CMP     X,#$17
17C6 EA 17 E0   NOT1    $0017.#7
17C9 0A ED D2   OR1     C,$12ED.#6
17CC E7 21      MOV     A,[$21+X]
17CE EB 03      MOV     Y,$03
17D0 12 5A      CLR1    $5A.#0
17D2 EA 0C FB   NOT1    $1B0C.#7
17D5 96 19 00   ADC     A,$0019+Y
17D8 0C 7B B0   ASL     $B07B
17DB 0C 7C B7   ASL     $B77C
17DE 0C 6B B7   ASL     $B76B
17E1 ED         NOTC
17E2 78 0C 7C   CMP     $7C,#$0C
17E5 B7 1E      SBC     A,[$1E]+Y
17E7 6B B7      ROR     $B7
17E9 00         NOP
17EA E0         CLRV
17EB 0A ED D2   OR1     C,$12ED.#6
17EE E7 21      MOV     A,[$21+X]
17F0 EB 03      MOV     Y,$03
17F2 12 5A      CLR1    $5A.#0
17F4 EA 0C FB   NOT1    $1B0C.#7
17F7 96 19 00   ADC     A,$0019+Y
17FA F4 28      MOV     A,$28+X
17FC 06         OR      A,(X)
17FD 75 B0 F4   CMP     A,$F4B0+X
1800 00         NOP
1801 0C 7B B4   ASL     $B47B
1804 0C 79 BC   ASL     $BC79
1807 0C 63 BC   ASL     $BC63
180A ED         NOTC
180B 78 0C 79   CMP     $79,#$0C
180E BC         INC     A
180F 18 63 BC   OR      $BC,#$63
1812 00         NOP
1813 35 18 17   AND     A,$1718+X
1816 18 E1 08   OR      $08,#$E1
1819 E2 10      SET1    $10.#7
181B 0C E0 08   ASL     $08E0
181E ED         NOTC
181F C8 E7      CMP     X,#$E7
1821 0F         BRK
1822 EE         POP     Y
1823 30 19      BMI     $183E
1825 FB 7F      MOV     Y,$7F+X
1827 E2 00      SET1    $00.#7
1829 E5 02 7F   MOV     A,$7F02
182C B5 B8 BC   SBC     A,$BCB8+X
182F C0         DI
1830 E6         MOV     A,(X)
1831 05 00 00   OR      A,$0000
1834 00         NOP
1835 E0         CLRV
1836 08 ED      OR      A,#$ED
1838 C8 E7      CMP     X,#$E7
183A 0F         BRK
183B EE         POP     Y
183C 30 19      BMI     $1857
183E FB 7F      MOV     Y,$7F+X
1840 E2 00      SET1    $00.#7
1842 E5 02 7F   MOV     A,$7F02
1845 AD B0      CMP     Y,#$B0
1847 B4 02      SBC     A,$02+X
1849 6F         RET
184A B7 E6      SBC     A,[$E6]+Y
184C 02 00      SET1    $00.#0
184E 00         NOP
184F E0         CLRV
1850 D3 FB FF   BBC     $FB,#6,$1852
1853 00         NOP
1854 7F         RETI
1855 ED         NOTC
1856 FF         STOP
1857 18 9F 00   OR      $00,#$9F
185A 5E 18 17   CMP     Y,$1718
185D 18 E0 08   OR      $08,#$E0
1860 ED         NOTC
1861 C8 E7      CMP     X,#$E7
1863 0F         BRK
1864 EE         POP     Y
1865 30 19      BMI     $1880
1867 FB 7F      MOV     Y,$7F+X
1869 E2 00      SET1    $00.#7
186B E5 02 7F   MOV     A,$7F02
186E AD B0      CMP     Y,#$B0
1870 B4 02      SBC     A,$02+X
1872 6F         RET
1873 B7 E6      SBC     A,[$E6]+Y
1875 02 00      SET1    $00.#0
1877 00         NOP
1878 E0         CLRV
1879 D4 FB      MOV     $FB+X,A
187B FF         STOP
187C 00         NOP
187D 7F         RETI
187E ED         NOTC
187F FF         STOP
1880 18 A0 00   OR      $00,#$A0
1883 87 18      ADC     A,[$18+X]
1885 17 18      OR      A,[$18]+Y
1887 E0         CLRV
1888 08 ED      OR      A,#$ED
188A C8 E7      CMP     X,#$E7
188C 0F         BRK
188D EE         POP     Y
188E 30 19      BMI     $18A9
1890 FB 7F      MOV     Y,$7F+X
1892 E2 00      SET1    $00.#7
1894 E5 02 7F   MOV     A,$7F02
1897 AD B0      CMP     Y,#$B0
1899 B4 02      SBC     A,$02+X
189B 6F         RET
189C B7 E6      SBC     A,[$E6]+Y
189E 02 00      SET1    $00.#0
18A0 00         NOP
18A1 E0         CLRV
18A2 D5 FB FF   MOV     $FFFB+X,A
18A5 00         NOP
18A6 7F         RETI
18A7 ED         NOTC
18A8 FF         STOP
18A9 18 9F 00   OR      $00,#$9F
18AC B0 18      BCS     $18C6
18AE 17 18      OR      A,[$18]+Y
18B0 E0         CLRV
18B1 08 ED      OR      A,#$ED
18B3 C8 E7      CMP     X,#$E7
18B5 0F         BRK
18B6 EE         POP     Y
18B7 30 19      BMI     $18D2
18B9 FB 7F      MOV     Y,$7F+X
18BB E2 00      SET1    $00.#7
18BD E5 02 7F   MOV     A,$7F02
18C0 AD B0      CMP     Y,#$B0
18C2 B4 02      SBC     A,$02+X
18C4 6F         RET
18C5 B7 E6      SBC     A,[$E6]+Y
18C7 02 00      SET1    $00.#0
18C9 00         NOP
18CA E0         CLRV
18CB D7 FB      MOV     [$FB]+Y,A
18CD FF         STOP
18CE 00         NOP
18CF 7F         RETI
18D0 ED         NOTC
18D1 FF         STOP
18D2 18 9F 00   OR      $00,#$9F
18D5 D9 18      MOV     $18+Y,X
18D7 17 18      OR      A,[$18]+Y
18D9 E0         CLRV
18DA 08 ED      OR      A,#$ED
18DC C8 E7      CMP     X,#$E7
18DE 0F         BRK
18DF EE         POP     Y
18E0 30 19      BMI     $18FB
18E2 FB 7F      MOV     Y,$7F+X
18E4 E2 00      SET1    $00.#7
18E6 E5 02 7F   MOV     A,$7F02
18E9 AD B0      CMP     Y,#$B0
18EB B4 02      SBC     A,$02+X
18ED 6F         RET
18EE B7 E6      SBC     A,[$E6]+Y
18F0 02 00      SET1    $00.#0
18F2 00         NOP
18F3 E0         CLRV
18F4 D6 FB FF   MOV     $FFFB+Y,A
18F7 00         NOP
18F8 7F         RETI
18F9 ED         NOTC
18FA FF         STOP
18FB 18 9F 00   OR      $00,#$9F
18FE 02 19      SET1    $19.#0
1900 17 18      OR      A,[$18]+Y
1902 E0         CLRV
1903 08 ED      OR      A,#$ED
1905 C8 E7      CMP     X,#$E7
1907 0F         BRK
1908 EE         POP     Y
1909 30 19      BMI     $1924
190B FB 7F      MOV     Y,$7F+X
190D E2 00      SET1    $00.#7
190F E5 02 7F   MOV     A,$7F02
1912 AD B0      CMP     Y,#$B0
1914 B4 02      SBC     A,$02+X
1916 6F         RET
1917 B7 E6      SBC     A,[$E6]+Y
1919 02 00      SET1    $00.#0
191B 00         NOP
191C E0         CLRV
191D D8 FB      MOV     $FB,X
191F FF         STOP
1920 00         NOP
1921 7F         RETI
1922 ED         NOTC
1923 FF         STOP
1924 18 9F 00   OR      $00,#$9F
1927 29 19 E1   AND     $E1,$19
192A 05 E2 4F   OR      A,$4FE2
192D 10 E0      BPL     $190F
192F 0D         PUSH    PSW
1930 ED         NOTC
1931 C8 E7      CMP     X,#$E7
1933 15 EE 63   OR      A,$63EE+X
1936 28 E3      AND     A,#$E3
1938 00         NOP
1939 01         TCALL   $0
193A 0F         BRK
193B 63 0F C4   BBS     $0F,#3,$1902
193E ED         NOTC
193F 28 EE      AND     A,#$EE
1941 50 00      BVC     $1943
1943 50 6F      BVC     $19B4
1945 C4 00      MOV     $00,A
1947 49 19 E1   EOR     $E1,$19
194A 07 E2      OR      A,[$E2+X]
194C 1E 0D E0   CMP     X,$E00D
194F 02 ED      SET1    $ED.#0
1951 AF         MOV     (X)+,A
1952 E7 3E      MOV     A,[$3E+X]
1954 FB 82      MOV     Y,$82+X
1956 01         TCALL   $0
1957 00         NOP
1958 07 0F      OR      A,[$0F+X]
195A C3 28 C2   BBS     $28,#6,$191F
195D ED         NOTC
195E 82 EE      SET1    $EE.#4
1960 32 32      CLR1    $32.#1
1962 32 C2      CLR1    $C2.#1
1964 00         NOP
1965 69 19 A1   CMP     $A1,$19
1968 19         OR      (X),(Y)
1969 E1         TCALL   $E
196A 0F         BRK
196B E2 D8      SET1    $D8.#7
196D 05 E0 07   OR      A,$07E0
1970 ED         NOTC
1971 FF         STOP
1972 E7 21      MOV     A,[$21+X]
1974 E3 00 FF   BBS     $00,#7,$1976
1977 FF         STOP
1978 FB FF      MOV     Y,$FF+X
197A 00         NOP
197B 7F         RETI
197C EE         POP     Y
197D D8 1E      MOV     $1E,X
197F EA 02 E5   NOT1    $0502.#7
1982 01         TCALL   $0
1983 0F         BRK
1984 A4 A1      SBC     A,$A1
1986 A3 A8 9C   BBS     $A8,#5,$1925
1989 9F         XCN     A
198A EA 01 A4   NOT1    $0401.#5
198D A1         TCALL   $A
198E A3 A8 9C   BBS     $A8,#5,$192D
1991 9F         XCN     A
1992 EA 00 A4   NOT1    $0400.#5
1995 A1         TCALL   $A
1996 A3 A8 9C   BBS     $A8,#5,$1935
1999 01         TCALL   $0
199A 6F         RET
199B 9F         XCN     A
199C E6         MOV     A,(X)
199D 0C 00 FB   ASL     $FB00
19A0 00         NOP
19A1 E2 D8      SET1    $D8.#7
19A3 08 E0      OR      A,#$E0
19A5 0E ED FF   TSET1   $FFED
19A8 E7 21      MOV     A,[$21+X]
19AA E3 00 FF   BBS     $00,#7,$19AC
19AD FF         STOP
19AE FB FF      MOV     Y,$FF+X
19B0 00         NOP
19B1 7F         RETI
19B2 EE         POP     Y
19B3 D8 1E      MOV     $1E,X
19B5 EA FA E5   NOT1    $05FA.#7
19B8 01         TCALL   $0
19B9 0F         BRK
19BA A4 A1      SBC     A,$A1
19BC A3 A8 9C   BBS     $A8,#5,$195B
19BF 9F         XCN     A
19C0 EA F9 A4   NOT1    $04F9.#5
19C3 A1         TCALL   $A
19C4 A3 A8 9C   BBS     $A8,#5,$1963
19C7 9F         XCN     A
19C8 EA F8 A4   NOT1    $04F8.#5
19CB A1         TCALL   $A
19CC A3 A8 9C   BBS     $A8,#5,$196B
19CF 9F         XCN     A
19D0 E6         MOV     A,(X)
19D1 0C 00 00   ASL     $0000
19D4 00         NOP
19D5 D7 19      MOV     [$19]+Y,A
19D7 E0         CLRV
19D8 06         OR      A,(X)
19D9 ED         NOTC
19DA FF         STOP
19DB E7 7B      MOV     A,[$7B+X]
19DD FB FF      MOV     Y,$FF+X
19DF 00         NOP
19E0 7F         RETI
19E1 E3 00 FF   BBS     $00,#7,$19E3
19E4 FF         STOP
19E5 0D         PUSH    PSW
19E6 6F         RET
19E7 BC         INC     A
19E8 F9 00      MOV     X,$00+Y
19EA 0D         PUSH    PSW
19EB 8C E0 0E   DEC     $0EE0
19EE EE         POP     Y
19EF F0 1E      BEQ     $1A0F
19F1 E1         TCALL   $E
19F2 05 E2 70   OR      A,$70E2
19F5 0F         BRK
19F6 30 0F      BMI     $1A07
19F8 9D         MOV     X,SP
19F9 F9 00      MOV     X,$00+Y
19FB 30 80      BMI     $197D
19FD 18 99 F9   OR      $F9,#$99
1A00 00         NOP
1A01 18 80 28   OR      $28,#$80
1A04 A9 F9 00   SBC     $00,$F9
1A07 28 80      AND     A,#$80
1A09 E2 80      SET1    $80.#7
1A0B 0A E5 20   OR1     C,$00E5.#1
1A0E 93 F9 00   BBC     $F9,#4,$1A11
1A11 20         CLRP
1A12 80         SETC
1A13 E6         MOV     A,(X)
1A14 04 00      OR      A,$00
1A16 00         NOP
1A17 00         NOP
1A18 1C         ASL     A
1A19 1A 50      DECW    $50
1A1B 1A E0      DECW    $E0
1A1D 12 ED      CLR1    $ED.#0
1A1F F0 E7      BEQ     $1A08
1A21 7B E3      ROR     $E3+X
1A23 00         NOP
1A24 FF         STOP
1A25 FF         STOP
1A26 E1         TCALL   $E
1A27 05 E2 3C   OR      A,$3CE2
1A2A 0F         BRK
1A2B 1C         ASL     A
1A2C 0F         BRK
1A2D A9 F9 00   SBC     $00,$F9
1A30 1C         ASL     A
1A31 8C 20 A3   DEC     $A320
1A34 F9 00      MOV     X,$00+Y
1A36 20         CLRP
1A37 8C E0 0E   DEC     $0EE0
1A3A ED         NOTC
1A3B AA E7 2D   MOV1    C,$0DE7.#1
1A3E EE         POP     Y
1A3F 72 28      CLR1    $28.#3
1A41 E2 72      SET1    $72.#7
1A43 0A E5 26   OR1     C,$06E5.#1
1A46 9D         MOV     X,SP
1A47 F9 00      MOV     X,$00+Y
1A49 26         AND     A,(X)
1A4A 80         SETC
1A4B E6         MOV     A,(X)
1A4C 03 00 00   BBS     $00,#0,$1A4F
1A4F 00         NOP
1A50 E0         CLRV
1A51 0E ED F0   TSET1   $F0ED
1A54 E7 7B      MOV     A,[$7B+X]
1A56 E3 00 FF   BBS     $00,#7,$1A58
1A59 FF         STOP
1A5A E1         TCALL   $E
1A5B 0F         BRK
1A5C E2 3C      SET1    $3C.#7
1A5E 05 16 0F   OR      A,$0F16
1A61 A9 F9 00   SBC     $00,$F9
1A64 16 8C 26   OR      A,$268C+Y
1A67 A3 F9 00   BBS     $F9,#5,$1A6A
1A6A 26         AND     A,(X)
1A6B 8C E0 06   DEC     $06E0
1A6E ED         NOTC
1A6F C8 E7      CMP     X,#$E7
1A71 2D         PUSH    A
1A72 EE         POP     Y
1A73 72 28      CLR1    $28.#3
1A75 E2 72      SET1    $72.#7
1A77 0A E5 80   OR1     C,$00E5.#4
1A7A F9 00      MOV     X,$00+Y
1A7C 26         AND     A,(X)
1A7D 8C E6 03   DEC     $03E6
1A80 00         NOP
1A81 00         NOP
1A82 00         NOP
1A83 85 1A E1   ADC     A,$E11A
1A86 09 E2 10   OR      $10,$E2
1A89 0B E0      ASL     $E0
1A8B 0E ED EE   TSET1   $EEED
1A8E E7 0F      MOV     A,[$0F+X]
1A90 FB 9A      MOV     Y,$9A+X
1A92 11         TCALL   $1
1A93 00         NOP
1A94 10 6F      BPL     $1B05
1A96 A6         SBC     A,(X)
1A97 F9 00      MOV     X,$00+Y
1A99 01         TCALL   $0
1A9A A5 00 A0   SBC     A,$A000
1A9D 1A C9      DECW    $C9
1A9F 1A E1      DECW    $E1
1AA1 0B E0      ASL     $E0
1AA3 02 ED      SET1    $ED.#0
1AA5 BE         DAS     A
1AA6 E7 7B      MOV     A,[$7B+X]
1AA8 EE         POP     Y
1AA9 72 14      CLR1    $14.#3
1AAB E5 06 0F   MOV     A,$0F06
1AAE C1         TCALL   $C
1AAF F9 01      MOV     X,$01+Y
1AB1 06         OR      A,(X)
1AB2 BE         DAS     A
1AB3 E6         MOV     A,(X)
1AB4 0A 00 00   OR1     C,$0000.#0
1AB7 ED         NOTC
1AB8 4B EE      LSR     $EE
1ABA 30 00      BMI     $1ABC
1ABC E5 06 6F   MOV     A,$6F06
1ABF C1         TCALL   $C
1AC0 F9 01      MOV     X,$01+Y
1AC2 06         OR      A,(X)
1AC3 BE         DAS     A
1AC4 E6         MOV     A,(X)
1AC5 08 00      OR      A,#$00
1AC7 00         NOP
1AC8 00         NOP
1AC9 E1         TCALL   $E
1ACA 09 E0 0A   OR      $0A,$E0
1ACD ED         NOTC
1ACE 5A E7      CMPW    YA,$E7
1AD0 7B EE      ROR     $EE+X
1AD2 72 00      CLR1    $00.#3
1AD4 06         OR      A,(X)
1AD5 C9 E5 06   MOV     $06E5,X
1AD8 0F         BRK
1AD9 C1         TCALL   $C
1ADA F9 01      MOV     X,$01+Y
1ADC 06         OR      A,(X)
1ADD BE         DAS     A
1ADE E6         MOV     A,(X)
1ADF 0A 00 00   OR1     C,$0000.#0
1AE2 ED         NOTC
1AE3 2D         PUSH    A
1AE4 EE         POP     Y
1AE5 30 00      BMI     $1AE7
1AE7 E5 06 6F   MOV     A,$6F06
1AEA C1         TCALL   $C
1AEB F9 01      MOV     X,$01+Y
1AED 06         OR      A,(X)
1AEE BE         DAS     A
1AEF E6         MOV     A,(X)
1AF0 07 00      OR      A,[$00+X]
1AF2 00         NOP
1AF3 00         NOP
1AF4 F6 1A E1   MOV     A,$E11A+Y
1AF7 08 E2      OR      A,#$E2
1AF9 14 0C      OR      A,$0C+X
1AFB E0         CLRV
1AFC 0D         PUSH    PSW
1AFD ED         NOTC
1AFE 96 E7 02   ADC     A,$02E7+Y
1B01 FB 14      MOV     Y,$14+X
1B03 D2 00      CLR1    $00.#6
1B05 28 6F      AND     A,#$6F
1B07 80         SETC
1B08 00         NOP
1B09 0D         PUSH    PSW
1B0A 1B 3E      ASL     $3E+X
1B0C 1B E1      ASL     $E1+X
1B0E 0D         PUSH    PSW
1B0F E2 E2      SET1    $E2.#7
1B11 07 E0      OR      A,[$E0+X]
1B13 06         OR      A,(X)
1B14 E7 3E      MOV     A,[$3E+X]
1B16 ED         NOTC
1B17 FF         STOP
1B18 1E 6F 8C   CMP     X,$8C6F
1B1B F9 00      MOV     X,$00+Y
1B1D 1E 80 ED   CMP     X,$ED80
1B20 96 8C F9   ADC     A,$F98C+Y
1B23 00         NOP
1B24 1E 80 ED   CMP     X,$ED80
1B27 64 8C      CMP     A,$8C
1B29 F9 00      MOV     X,$00+Y
1B2B 1E 80 ED   CMP     X,$ED80
1B2E 46         EOR     A,(X)
1B2F 8C F9 00   DEC     $00F9
1B32 1E 80 ED   CMP     X,$ED80
1B35 28 8C      AND     A,#$8C
1B37 F9 00      MOV     X,$00+Y
1B39 1E 80 2E   CMP     X,$2E80
1B3C C9 00 E1   MOV     $E100,X
1B3F 07 E2      OR      A,[$E2+X]
1B41 E2 0D      SET1    $0D.#7
1B43 E0         CLRV
1B44 0D         PUSH    PSW
1B45 E7 3E      MOV     A,[$3E+X]
1B47 ED         NOTC
1B48 AA EE A0   MOV1    C,$00EE.#5
1B4B 5A 06      CMPW    YA,$06
1B4D 0F         BRK
1B4E 80         SETC
1B4F 50 6F      BVC     $1BC0
1B51 8C F9 00   DEC     $00F9
1B54 50 80      BVC     $1AD6
1B56 ED         NOTC
1B57 50 EE      BVC     $1B47
1B59 50 28      BVC     $1B83
1B5B 46         EOR     A,(X)
1B5C 0F         BRK
1B5D 89 F9 00   ADC     $00,$F9
1B60 46         EOR     A,(X)
1B61 80         SETC
1B62 ED         NOTC
1B63 28 EE      AND     A,#$EE
1B65 50 1E      BVC     $1B85
1B67 89 F9 00   ADC     $00,$F9
1B6A 46         EOR     A,(X)
1B6B 80         SETC
1B6C 00         NOP
1B6D 6F         RET
1B6E 1B E1      ASL     $E1+X
1B70 00         NOP
1B71 E2 0C      SET1    $0C.#7
1B73 14 E0      OR      A,$E0+X
1B75 13 ED 82   BBC     $ED,#0,$1AFA
1B78 E7 02      MOV     A,[$02+X]
1B7A FB 50      MOV     Y,$50+X
1B7C 47 00      EOR     A,[$00+X]
1B7E 0C 6F C4   ASL     $C46F
1B81 00         NOP
1B82 84 1B      ADC     A,$1B
1B84 E1         TCALL   $E
1B85 14 E2      OR      A,$E2+X
1B87 08 00      OR      A,#$00
1B89 E0         CLRV
1B8A 04 ED      OR      A,$ED
1B8C B4 E7      SBC     A,$E7+X
1B8E 02 FB      SET1    $FB.#0
1B90 50 4A      BVC     $1BDC
1B92 00         NOP
1B93 F4 1E      MOV     A,$1E+X
1B95 08 6F      OR      A,#$6F
1B97 C3 00 9D   BBS     $00,#6,$1B37
1B9A 1B BB      ASL     $BB+X
1B9C 1B E1      ASL     $E1+X
1B9E 07 E2      OR      A,[$E2+X]
1BA0 1E 0D E0   CMP     X,$E00D
1BA3 06         OR      A,(X)
1BA4 E7 7B      MOV     A,[$7B+X]
1BA6 ED         NOTC
1BA7 96 E5 1E   ADC     A,$1EE5+Y
1BAA 0F         BRK
1BAB 8C F9 00   DEC     $00F9
1BAE 1E 80 0A   CMP     X,$0A80
1BB1 8E         POP     PSW
1BB2 F9 00      MOV     X,$00+Y
1BB4 0A 80 E6   OR1     C,$0680.#7
1BB7 0A 00 0A   OR1     C,$0A00.#0
1BBA 00         NOP
1BBB E1         TCALL   $E
1BBC 07 E2      OR      A,[$E2+X]
1BBE 1E 0D E0   CMP     X,$E00D
1BC1 06         OR      A,(X)
1BC2 E7 7B      MOV     A,[$7B+X]
1BC4 ED         NOTC
1BC5 91         TCALL   $9
1BC6 E3 00 FF   BBS     $00,#7,$1BC8
1BC9 FF         STOP
1BCA FB FF      MOV     Y,$FF+X
1BCC 00         NOP
1BCD 7F         RETI
1BCE E5 03 6F   MOV     A,$6F03
1BD1 8C 93 95   DEC     $9593
1BD4 97 95      ADC     A,[$95]+Y
1BD6 E6         MOV     A,(X)
1BD7 1A 00      DECW    $00
1BD9 0A 0A C9   OR1     C,$090A.#6
1BDC 00         NOP
1BDD DF         DAA     A
1BDE 1B E0      ASL     $E0+X
1BE0 00         NOP
1BE1 ED         NOTC
1BE2 E6         MOV     A,(X)
1BE3 E7 7B      MOV     A,[$7B+X]
1BE5 FB E6      MOV     Y,$E6+X
1BE7 00         NOP
1BE8 7F         RETI
1BE9 EE         POP     Y
1BEA AA 46 01   MOV1    C,$0146.#0
1BED 0F         BRK
1BEE B1         TCALL   $B
1BEF E1         TCALL   $E
1BF0 08 E2      OR      A,#$E2
1BF2 D2 0C      CLR1    $0C.#6
1BF4 E5 06 C1   MOV     A,$C106
1BF7 F9 01      MOV     X,$01+Y
1BF9 05 85 05   OR      A,$0585
1BFC B9         SBC     (X),(Y)
1BFD F9 01      MOV     X,$01+Y
1BFF 04 89      OR      A,$89
1C01 06         OR      A,(X)
1C02 B9         SBC     (X),(Y)
1C03 F9 01      MOV     X,$01+Y
1C05 05 A1 A9   OR      A,$A9A1
1C08 F9 01      MOV     X,$01+Y
1C0A 05 C3 10   OR      A,$10C3
1C0D 85 F9 01   ADC     A,$01F9
1C10 0F         BRK
1C11 BB 03      INC     $03+X
1C13 6F         RET
1C14 85 F9 01   ADC     A,$01F9
1C17 02 91      SET1    $91.#0
1C19 E6         MOV     A,(X)
1C1A 05 E2 00   OR      A,$00E2
1C1D 00         NOP
1C1E 20         CLRP
1C1F 1C         ASL     A
1C20 E1         TCALL   $E
1C21 08 E2      OR      A,#$E2
1C23 0A 0C E0   OR1     C,$000C.#7
1C26 0C ED 8C   ASL     $8CED
1C29 E7 04      MOV     A,[$04+X]
1C2B FB 46      MOV     Y,$46+X
1C2D A5 00 0A   SBC     A,$0A00
1C30 6F         RET
1C31 B7 00      SBC     A,[$00]+Y
1C33 35 1C E1   AND     A,$E11C+X
1C36 0C E2 28   ASL     $28E2
1C39 05 E0 02   OR      A,$02E0
1C3C ED         NOTC
1C3D 7D         MOV     A,X
1C3E E7 34      MOV     A,[$34+X]
1C40 FB 78      MOV     Y,$78+X
1C42 A6         SBC     A,(X)
1C43 7F         RETI
1C44 EA 05 E5   NOT1    $0505.#7
1C47 02 0F      SET1    $0F.#0
1C49 B7 E6      SBC     A,[$E6]+Y
1C4B 28 00      AND     A,#$00
1C4D 00         NOP
1C4E 00         NOP
1C4F 51         TCALL   $5
1C50 1C         ASL     A
1C51 E1         TCALL   $E
1C52 08 E2      OR      A,#$E2
1C54 B4 0C      SBC     A,$0C+X
1C56 E0         CLRV
1C57 0E ED C8   TSET1   $C8ED
1C5A E7 7B      MOV     A,[$7B+X]
1C5C E3 00 FF   BBS     $00,#7,$1C5E
1C5F FA FB FF   MOV     $FF,$FB
1C62 00         NOP
1C63 7F         RETI
1C64 E5 1E 0F   MOV     A,$0F1E
1C67 A1         TCALL   $A
1C68 F9 00      MOV     X,$00+Y
1C6A 1E 84 1E   CMP     X,$1E84
1C6D 6F         RET
1C6E 8C F9 00   DEC     $00F9
1C71 1E 80 E6   CMP     X,$E680
1C74 03 A6 00   BBS     $A6,#0,$1C77
1C77 00         NOP
1C78 7A 1C      ADDW    YA,$1C
1C7A E7 3E      MOV     A,[$3E+X]
1C7C ED         NOTC
1C7D FF         STOP
1C7E E0         CLRV
1C7F 12 0A      CLR1    $0A.#0
1C81 6F         RET
1C82 93 F9 00   BBC     $F9,#4,$1C85
1C85 0A 80 E0   OR1     C,$0080.#7
1C88 0E 1E 98   TSET1   $981E
1C8B F9 00      MOV     X,$00+Y
1C8D 1E 80 ED   CMP     X,$ED80
1C90 96 EE 78   ADC     A,$78EE+Y
1C93 1E E5 1E   CMP     X,$1EE5
1C96 0F         BRK
1C97 98 F9 00   ADC     $00,#$F9
1C9A 1E 80 E6   CMP     X,$E680
1C9D 03 00 00   BBS     $00,#0,$1CA0
1CA0 00         NOP
1CA1 A3 1C E1   BBS     $1C,#5,$1C85
1CA4 07 E2      OR      A,[$E2+X]
1CA6 E1         TCALL   $E
1CA7 0D         PUSH    PSW
1CA8 E0         CLRV
1CA9 06         OR      A,(X)
1CAA E7 7B      MOV     A,[$7B+X]
1CAC ED         NOTC
1CAD FF         STOP
1CAE E3 00 FF   BBS     $00,#7,$1CB0
1CB1 F0 FB      BEQ     $1CAE
1CB3 5A 07      CMPW    YA,$07
1CB5 7F         RETI
1CB6 EA 04 E5   NOT1    $0504.#7
1CB9 03 0F 89   BBS     $0F,#0,$1C45
1CBC 8B 89      DEC     $89
1CBE 87 80      ADC     A,[$80+X]
1CC0 E6         MOV     A,(X)
1CC1 0F         BRK
1CC2 EC D8 00   MOV     Y,$00D8
1CC5 C7 1C      MOV     [$1C+X],A
1CC7 E1         TCALL   $E
1CC8 0C E2 64   ASL     $64E2
1CCB 04 E0      OR      A,$E0
1CCD 0D         PUSH    PSW
1CCE E7 0C      MOV     A,[$0C+X]
1CD0 ED         NOTC
1CD1 FF         STOP
1CD2 FB 00      MOV     Y,$00+X
1CD4 00         NOP
1CD5 00         NOP
1CD6 64 7F      CMP     A,$7F
1CD8 C4 F9      MOV     $F9,A
1CDA 00         NOP
1CDB 64 80      CMP     A,$80
1CDD ED         NOTC
1CDE C8 EE      CMP     X,#$EE
1CE0 1E 96 FB   CMP     X,$FB96
1CE3 64 02      CMP     A,$02
1CE5 00         NOP
1CE6 1E 08 8C   CMP     X,$8C08
1CE9 F9 00      MOV     X,$00+Y
1CEB 1E 80 00   CMP     X,$0080
1CEE F0 1C      BEQ     $1D0C
1CF0 E0         CLRV
1CF1 06         OR      A,(X)
1CF2 ED         NOTC
1CF3 96 E7 7B   ADC     A,$7BE7+Y
1CF6 FB FF      MOV     Y,$FF+X
1CF8 00         NOP
1CF9 7F         RETI
1CFA E3 00 FF   BBS     $00,#7,$1CFC
1CFD FF         STOP
1CFE 09 6F BC   OR      $BC,$6F
1D01 F9 00      MOV     X,$00+Y
1D03 09 8C 0A   OR      $0A,$8C
1D06 C9 E2 09   MOV     $09E2,X
1D09 08 ED      OR      A,#$ED
1D0B 3C         ROL     A
1D0C 09 BC F9   OR      $F9,$BC
1D0F 00         NOP
1D10 09 8C 00   OR      $00,$8C
1D13 15 1D E0   OR      A,$E01D+X
1D16 06         OR      A,(X)
1D17 E7 3E      MOV     A,[$3E+X]
1D19 ED         NOTC
1D1A C8 0A      CMP     X,#$0A
1D1C 6F         RET
1D1D 93 F9 00   BBC     $F9,#4,$1D20
1D20 0A 80 E1   OR1     C,$0180.#7
1D23 0C E2 78   ASL     $78E2
1D26 08 E0      OR      A,#$E0
1D28 0D         PUSH    PSW
1D29 ED         NOTC
1D2A A0         EI
1D2B EE         POP     Y
1D2C 5A 3C      CMPW    YA,$3C
1D2E 5A 8C      CMPW    YA,$8C
1D30 F9 00      MOV     X,$00+Y
1D32 5A 80      CMPW    YA,$80
1D34 ED         NOTC
1D35 3C         ROL     A
1D36 EE         POP     Y
1D37 3C         ROL     A
1D38 1E 3C 89   CMP     X,$893C
1D3B F9 00      MOV     X,$00+Y
1D3D 3C         ROL     A
1D3E 80         SETC
1D3F 00         NOP
1D40 42 1D      SET1    $1D.#2
1D42 E7 7B      MOV     A,[$7B+X]
1D44 E0         CLRV
1D45 06         OR      A,(X)
1D46 ED         NOTC
1D47 F0 EE      BEQ     $1D37
1D49 0E 00 0E   TSET1   $0E00
1D4C 6F         RET
1D4D A6         SBC     A,(X)
1D4E F9 00      MOV     X,$00+Y
1D50 0E 8E E2   TSET1   $E28E
1D53 32 05      CLR1    $05.#1
1D55 ED         NOTC
1D56 E6         MOV     A,(X)
1D57 E0         CLRV
1D58 09 32 A7   OR      $A7,$32
1D5B F9 00      MOV     X,$00+Y
1D5D 32 82      CLR1    $82.#1
1D5F E2 32      SET1    $32.#7
1D61 0F         BRK
1D62 ED         NOTC
1D63 64 A7      CMP     A,$A7
1D65 F9 00      MOV     X,$00+Y
1D67 32 82      CLR1    $82.#1
1D69 E2 32      SET1    $32.#7
1D6B 05 ED 46   OR      A,$46ED
1D6E A7 F9      SBC     A,[$F9+X]
1D70 00         NOP
1D71 32 82      CLR1    $82.#1
1D73 00         NOP
1D74 76 1D E1   CMP     A,$E11D+Y
1D77 05 E2 50   OR      A,$50E2
1D7A 14 E0      OR      A,$E0+X
1D7C 0D         PUSH    PSW
1D7D ED         NOTC
1D7E FF         STOP
1D7F EE         POP     Y
1D80 63 5A E7   BBS     $5A,#3,$1D6A
1D83 39         AND     (X),(Y)
1D84 FB 82      MOV     Y,$82+X
1D86 00         NOP
1D87 00         NOP
1D88 E3 00 01   BBS     $00,#7,$1D8C
1D8B 0F         BRK
1D8C 63 0F A4   BBS     $0F,#3,$1D33
1D8F 00         NOP
1D90 92 1D      CLR1    $1D.#4
1D92 E1         TCALL   $E
1D93 05 E2 63   OR      A,$63E2
1D96 12 E0      CLR1    $E0.#0
1D98 0D         PUSH    PSW
1D99 ED         NOTC
1D9A E6         MOV     A,(X)
1D9B E7 0C      MOV     A,[$0C+X]
1D9D FB 64      MOV     Y,$64+X
1D9F 06         OR      A,(X)
1DA0 00         NOP
1DA1 E3 00 FF   BBS     $00,#7,$1DA3
1DA4 B4 50      SBC     A,$50+X
1DA6 6F         RET
1DA7 BC         INC     A
1DA8 00         NOP
1DA9 AB 1D      INC     $1D
1DAB E0         CLRV
1DAC 09 ED E6   OR      $E6,$ED
1DAF E7 7B      MOV     A,[$7B+X]
1DB1 FB FF      MOV     Y,$FF+X
1DB3 00         NOP
1DB4 7F         RETI
1DB5 E1         TCALL   $E
1DB6 07 E2      OR      A,[$E2+X]
1DB8 0D         PUSH    PSW
1DB9 0D         PUSH    PSW
1DBA E3 00 FF   BBS     $00,#7,$1DBC
1DBD FF         STOP
1DBE 0D         PUSH    PSW
1DBF 6F         RET
1DC0 BC         INC     A
1DC1 F9 00      MOV     X,$00+Y
1DC3 0D         PUSH    PSW
1DC4 8C E0 12   DEC     $12E0
1DC7 EE         POP     Y
1DC8 36 BE E2   AND     A,$E2BE+Y
1DCB 36 08 18   AND     A,$1808+Y
1DCE 0F         BRK
1DCF 9D         MOV     X,SP
1DD0 F9 00      MOV     X,$00+Y
1DD2 18 80 14   OR      $14,#$80
1DD5 99         ADC     (X),(Y)
1DD6 F9 00      MOV     X,$00+Y
1DD8 14 80      OR      A,$80+X
1DDA 0A A9 F9   OR1     C,$19A9.#7
1DDD 00         NOP
1DDE 0A 80 E2   OR1     C,$0280.#7
1DE1 41         TCALL   $4
1DE2 0C EE 41   ASL     $41EE
1DE5 32 E5      CLR1    $E5.#1
1DE7 0D         PUSH    PSW
1DE8 93 F9 00   BBC     $F9,#4,$1DEB
1DEB 0D         PUSH    PSW
1DEC 80         SETC
1DED E6         MOV     A,(X)
1DEE 05 00 00   OR      A,$0000
1DF1 00         NOP
1DF2 F6 1D 2C   MOV     A,$2C1D+Y
1DF5 1E E1 00   CMP     X,$00E1
1DF8 E2 14      SET1    $14.#7
1DFA 0C E7 7B   ASL     $7BE7
1DFD E0         CLRV
1DFE 0D         PUSH    PSW
1DFF ED         NOTC
1E00 50 FB      BVC     $1DFD
1E02 64 D2      CMP     A,$D2
1E04 00         NOP
1E05 14 6F      OR      A,$6F+X
1E07 98 E2 3C   ADC     $3C,#$E2
1E0A 0A E0 12   OR1     C,$12E0.#0
1E0D ED         NOTC
1E0E D2 9D      CLR1    $9D.#6
1E10 F9 00      MOV     X,$00+Y
1E12 14 80      OR      A,$80+X
1E14 ED         NOTC
1E15 E6         MOV     A,(X)
1E16 28 98      AND     A,#$98
1E18 F9 00      MOV     X,$00+Y
1E1A 28 80      AND     A,#$80
1E1C ED         NOTC
1E1D 73 EE C8   BBC     $EE,#3,$1DE8
1E20 1E E5 98   CMP     X,$98E5
1E23 F9 00      MOV     X,$00+Y
1E25 28 80      AND     A,#$80
1E27 E6         MOV     A,(X)
1E28 05 00 00   OR      A,$0000
1E2B 00         NOP
1E2C E1         TCALL   $E
1E2D 00         NOP
1E2E E2 14      SET1    $14.#7
1E30 08 E7      OR      A,#$E7
1E32 7B E0      ROR     $E0+X
1E34 0C ED 3C   ASL     $3CED
1E37 FB 64      MOV     Y,$64+X
1E39 D2 00      CLR1    $00.#6
1E3B 14 6F      OR      A,$6F+X
1E3D B7 E3      SBC     A,[$E3]+Y
1E3F 00         NOP
1E40 FF         STOP
1E41 FF         STOP
1E42 E2 3C      SET1    $3C.#7
1E44 0A E0 0E   OR1     C,$0EE0.#0
1E47 ED         NOTC
1E48 E6         MOV     A,(X)
1E49 16 A9 F9   OR      A,$F9A9+Y
1E4C 00         NOP
1E4D 16 80 E0   OR      A,$E080+Y
1E50 0D         PUSH    PSW
1E51 26         AND     A,(X)
1E52 87 ED      ADC     A,[$ED+X]
1E54 73 EE C8   BBC     $EE,#3,$1E1F
1E57 1E E5 28   CMP     X,$28E5
1E5A 87 E6      ADC     A,[$E6+X]
1E5C 05 00 00   OR      A,$0000
1E5F 00         NOP
1E60 62 1E      SET1    $1E.#3
1E62 E0         CLRV
1E63 04 E7      OR      A,$E7
1E65 10 ED      BPL     $1E54
1E67 DC         DEC     Y
1E68 E3 00 FF   BBS     $00,#7,$1E6A
1E6B F0 FB      BEQ     $1E68
1E6D 78 84 00   CMP     $00,#$84
1E70 18 6F BC   OR      $BC,#$6F
1E73 F9 00      MOV     X,$00+Y
1E75 18 B0 ED   OR      $ED,#$B0
1E78 4B BC      LSR     $BC
1E7A F9 00      MOV     X,$00+Y
1E7C 18 B0 00   OR      $00,#$B0
1E7F 83 1E B9   BBS     $1E,#4,$1E3B
1E82 1E E1 07   CMP     X,$07E1
1E85 E2 90      SET1    $90.#7
1E87 0D         PUSH    PSW
1E88 E0         CLRV
1E89 08 E7      OR      A,#$E7
1E8B 7B ED      ROR     $ED+X
1E8D DC         DEC     Y
1E8E FB 8C      MOV     Y,$8C+X
1E90 D2 00      CLR1    $00.#6
1E92 10 0F      BPL     $1EA3
1E94 AD F9      CMP     Y,#$F9
1E96 01         TCALL   $0
1E97 0F         BRK
1E98 9E         DIV     YA,X
1E99 20         CLRP
1E9A 9E         DIV     YA,X
1E9B F9 01      MOV     X,$01+Y
1E9D 1F 8E 8E   JMP     [$8E8E+X]
1EA0 F9 01      MOV     X,$01+Y
1EA2 1F AD EE   JMP     [$EEAD+X]
1EA5 20         CLRP
1EA6 6E 20 6F   DBNZ    $20,$1F18
1EA9 AD F9      CMP     Y,#$F9
1EAB 00         NOP
1EAC 20         CLRP
1EAD BC         INC     A
1EAE ED         NOTC
1EAF 64 EE      CMP     A,$EE
1EB1 20         CLRP
1EB2 32 AD      CLR1    $AD.#1
1EB4 F9 00      MOV     X,$00+Y
1EB6 20         CLRP
1EB7 BC         INC     A
1EB8 00         NOP
1EB9 E1         TCALL   $E
1EBA 0D         PUSH    PSW
1EBB E2 90      SET1    $90.#7
1EBD 07 E0      OR      A,[$E0+X]
1EBF 0B E7      ASL     $E7
1EC1 7B ED      ROR     $ED+X
1EC3 AA FB 8C   MOV1    C,$0CFB.#4
1EC6 D2 00      CLR1    $00.#6
1EC8 F4 3C      MOV     A,$3C+X
1ECA 10 0F      BPL     $1EDB
1ECC AD F9      CMP     Y,#$F9
1ECE 01         TCALL   $0
1ECF 0F         BRK
1ED0 9E         DIV     YA,X
1ED1 20         CLRP
1ED2 9E         DIV     YA,X
1ED3 F9 01      MOV     X,$01+Y
1ED5 1F 8E 8E   JMP     [$8E8E+X]
1ED8 F9 01      MOV     X,$01+Y
1EDA 1F AD E0   JMP     [$E0AD+X]
1EDD 09 FB 64   OR      $64,$FB
1EE0 D2 00      CLR1    $00.#6
1EE2 EE         POP     Y
1EE3 20         CLRP
1EE4 50 20      BVC     $1F06
1EE6 6F         RET
1EE7 AD F9      CMP     Y,#$F9
1EE9 00         NOP
1EEA 20         CLRP
1EEB BC         INC     A
1EEC ED         NOTC
1EED 46         EOR     A,(X)
1EEE EE         POP     Y
1EEF 20         CLRP
1EF0 23 AD F9   BBS     $AD,#1,$1EEC
1EF3 00         NOP
1EF4 20         CLRP
1EF5 BC         INC     A
1EF6 00         NOP
1EF7 F9 1E      MOV     X,$1E+Y
1EF9 E7 7B      MOV     A,[$7B+X]
1EFB FB FF      MOV     Y,$FF+X
1EFD 00         NOP
1EFE 7F         RETI
1EFF E0         CLRV
1F00 06         OR      A,(X)
1F01 ED         NOTC
1F02 B4 02      SBC     A,$02+X
1F04 6F         RET
1F05 B7 F9      SBC     A,[$F9]+Y
1F07 00         NOP
1F08 02 8C      SET1    $8C.#0
1F0A E0         CLRV
1F0B 0F         BRK
1F0C ED         NOTC
1F0D DC         DEC     Y
1F0E EE         POP     Y
1F0F 50 0A      BVC     $1F1B
1F11 E2 50      SET1    $50.#7
1F13 0C 14 98   ASL     $9814
1F16 F9 00      MOV     X,$00+Y
1F18 18 A9 E1   OR      $E1,#$A9
1F1B 0A E0 06   OR1     C,$06E0.#0
1F1E ED         NOTC
1F1F 78 02 B7   CMP     $B7,#$02
1F22 F9 00      MOV     X,$00+Y
1F24 02 8C      SET1    $8C.#0
1F26 E0         CLRV
1F27 0F         BRK
1F28 ED         NOTC
1F29 50 EE      BVC     $1F19
1F2B 50 28      BVC     $1F55
1F2D E2 50      SET1    $50.#7
1F2F 0C E5 14   ASL     $14E5
1F32 98 F9 00   ADC     $00,#$F9
1F35 18 A9 E6   OR      $E6,#$A9
1F38 04 00      OR      A,$00
1F3A 00         NOP
1F3B 00         NOP
1F3C 40         SETP
1F3D 1F 7A 1F   JMP     [$1F7A+X]
1F40 E1         TCALL   $E
1F41 05 E2 68   OR      A,$68E2
1F44 0A E0 10   OR1     C,$10E0.#0
1F47 ED         NOTC
1F48 BE         DAS     A
1F49 E7 1F      MOV     A,[$1F+X]
1F4B FB 64      MOV     Y,$64+X
1F4D D2 00      CLR1    $00.#6
1F4F EE         POP     Y
1F50 0E 8C 01   TSET1   $018C
1F53 0F         BRK
1F54 AF         MOV     (X)+,A
1F55 B4 E5      SBC     A,$E5+X
1F57 B7 B8      SBC     A,[$B8]+Y
1F59 E6         MOV     A,(X)
1F5A 06         OR      A,(X)
1F5B 00         NOP
1F5C 00         NOP
1F5D ED         NOTC
1F5E 8C EE 12   DEC     $12EE
1F61 50 BB      BVC     $1F1E
1F63 C0         DI
1F64 E5 C3 C4   MOV     A,$C4C3
1F67 E6         MOV     A,(X)
1F68 08 00      OR      A,#$00
1F6A 00         NOP
1F6B ED         NOTC
1F6C 28 EE      AND     A,#$EE
1F6E 1A 1E      DECW    $1E
1F70 BB C0      INC     $C0+X
1F72 E5 C3 C4   MOV     A,$C4C3
1F75 E6         MOV     A,(X)
1F76 0C 00 00   ASL     $0000
1F79 00         NOP
1F7A E1         TCALL   $E
1F7B 0F         BRK
1F7C E2 68      SET1    $68.#7
1F7E 0A E0 09   OR1     C,$09E0.#0
1F81 ED         NOTC
1F82 BE         DAS     A
1F83 E7 1F      MOV     A,[$1F+X]
1F85 FB 64      MOV     Y,$64+X
1F87 D2 00      CLR1    $00.#6
1F89 EE         POP     Y
1F8A 0E 8C 01   TSET1   $018C
1F8D 0F         BRK
1F8E AF         MOV     (X)+,A
1F8F B4 E5      SBC     A,$E5+X
1F91 B7 B8      SBC     A,[$B8]+Y
1F93 E6         MOV     A,(X)
1F94 06         OR      A,(X)
1F95 00         NOP
1F96 00         NOP
1F97 ED         NOTC
1F98 8C EE 12   DEC     $12EE
1F9B 50 BB      BVC     $1F58
1F9D C0         DI
1F9E E5 C3 C4   MOV     A,$C4C3
1FA1 E6         MOV     A,(X)
1FA2 08 00      OR      A,#$00
1FA4 00         NOP
1FA5 ED         NOTC
1FA6 28 EE      AND     A,#$EE
1FA8 1A 1E      DECW    $1E
1FAA BB C0      INC     $C0+X
1FAC E5 C3 C4   MOV     A,$C4C3
1FAF E6         MOV     A,(X)
1FB0 0C 00 00   ASL     $0000
1FB3 00         NOP
1FB4 B6 1F E0   SBC     A,$E01F+Y
1FB7 12 E7      CLR1    $E7.#0
1FB9 7B ED      ROR     $ED+X
1FBB FF         STOP
1FBC EE         POP     Y
1FBD 1E 00 E3   CMP     X,$E300
1FC0 00         NOP
1FC1 FF         STOP
1FC2 FF         STOP
1FC3 FB FF      MOV     Y,$FF+X
1FC5 00         NOP
1FC6 7F         RETI
1FC7 1E 6F 80   CMP     X,$806F
1FCA ED         NOTC
1FCB 8C EE 1E   DEC     $1EEE
1FCE 00         NOP
1FCF 80         SETC
1FD0 ED         NOTC
1FD1 5A EE      CMPW    YA,$EE
1FD3 1E 00 80   CMP     X,$8000
1FD6 ED         NOTC
1FD7 3C         ROL     A
1FD8 EE         POP     Y
1FD9 14 00      OR      A,$00+X
1FDB 80         SETC
1FDC 00         NOP
1FDD DF         DAA     A
1FDE 1F E0 12   JMP     [$12E0+X]
1FE1 E7 15      MOV     A,[$15+X]
1FE3 ED         NOTC
1FE4 BE         DAS     A
1FE5 E3 00 F0   BBS     $00,#7,$1FD8
1FE8 FF         STOP
1FE9 2F 0F      BRA     $1FFA
1FEB 80         SETC
1FEC ED         NOTC
1FED 8C EE 2F   DEC     $2FEE
1FF0 3C         ROL     A
1FF1 32 80      CLR1    $80.#1
1FF3 00         NOP
1FF4 F8 1F      MOV     X,$1F
1FF6 49 20 E1   EOR     $E1,$20
1FF9 14 E2      OR      A,$E2+X
1FFB AA 00 E0   MOV1    C,$0000.#7
1FFE 09 ED FF   OR      $FF,$ED
2001 E7 2D      MOV     A,[$2D+X]
2003 E3 00 FF   BBS     $00,#7,$2005
2006 FF         STOP
2007 FB FF      MOV     Y,$FF+X
2009 00         NOP
200A 7F         RETI
200B E5 01 0F   MOV     A,$0F01
200E A4 01      SBC     A,$01
2010 0E A1 01   TSET1   $01A1
2013 0D         PUSH    PSW
2014 A3 01 0B   BBS     $01,#5,$2022
2017 A8 01      SBC     A,#$01
2019 09 9C 01   OR      $01,$9C
201C 67 9F      CMP     A,[$9F+X]
201E E6         MOV     A,(X)
201F 03 F6 00   BBS     $F6,#0,$2022
2022 EE         POP     Y
2023 A0         EI
2024 0A EA 02   OR1     C,$02EA.#0
2027 E5 01 0F   MOV     A,$0F01
202A A4 A1      SBC     A,$A1
202C A3 A8 9C   BBS     $A8,#5,$1FCB
202F 9F         XCN     A
2030 EA 01 01   NOT1    $0101.#0
2033 0D         PUSH    PSW
2034 A4 A1      SBC     A,$A1
2036 A3 A8 9C   BBS     $A8,#5,$1FD5
2039 9F         XCN     A
203A EA 00 01   NOT1    $0100.#0
203D 0B A4      ASL     $A4
203F A1         TCALL   $A
2040 A3 A8 9C   BBS     $A8,#5,$1FDF
2043 9F         XCN     A
2044 E6         MOV     A,(X)
2045 0A 00 00   OR1     C,$0000.#0
2048 00         NOP
2049 E1         TCALL   $E
204A 14 E2      OR      A,$E2+X
204C AA 00 E0   MOV1    C,$0000.#7
204F 12 ED      CLR1    $ED.#0
2051 FF         STOP
2052 E7 2D      MOV     A,[$2D+X]
2054 FB FF      MOV     Y,$FF+X
2056 00         NOP
2057 7F         RETI
2058 E3 00 FF   BBS     $00,#7,$205A
205B E6         MOV     A,(X)
205C E5 0A 6F   MOV     A,$6F0A
205F 87 F9      ADC     A,[$F9+X]
2061 00         NOP
2062 0A 80 03   OR1     C,$0380.#0
2065 8C F9 00   DEC     $00F9
2068 03 80 06   BBS     $80,#0,$2071
206B 84 F9      ADC     A,$F9
206D 00         NOP
206E 06         OR      A,(X)
206F 80         SETC
2070 E6         MOV     A,(X)
2071 02 00      SET1    $00.#0
2073 00         NOP
2074 EE         POP     Y
2075 A0         EI
2076 0A E5 0A   OR1     C,$0AE5.#0
2079 87 F9      ADC     A,[$F9+X]
207B 00         NOP
207C 0A 80 03   OR1     C,$0380.#0
207F 8C F9 00   DEC     $00F9
2082 03 80 06   BBS     $80,#0,$208B
2085 84 F9      ADC     A,$F9
2087 00         NOP
2088 06         OR      A,(X)
2089 80         SETC
208A E6         MOV     A,(X)
208B 08 00      OR      A,#$00
208D 00         NOP
208E 08 87      OR      A,#$87
2090 F9 00      MOV     X,$00+Y
2092 05 80 00   OR      A,$0080
2095 97 20      ADC     A,[$20]+Y
2097 E0         CLRV
2098 0E ED C8   TSET1   $C8ED
209B E7 7B      MOV     A,[$7B+X]
209D FB FF      MOV     Y,$FF+X
209F 00         NOP
20A0 7F         RETI
20A1 E3 00 FF   BBS     $00,#7,$20A3
20A4 FF         STOP
20A5 08 67      OR      A,#$67
20A7 84 F9      ADC     A,$F9
20A9 00         NOP
20AA 0D         PUSH    PSW
20AB 8C 05 6F   DEC     $6F05
20AE 98 F9 00   ADC     $00,#$F9
20B1 0A 80 0F   OR1     C,$0F80.#0
20B4 8C F9 00   DEC     $00F9
20B7 14 80      OR      A,$80+X
20B9 ED         NOTC
20BA 64 EE      CMP     A,$EE
20BC 70 1E      BVS     $20DC
20BE E5 08 87   MOV     A,$8708
20C1 F9 00      MOV     X,$00+Y
20C3 0D         PUSH    PSW
20C4 98 05 98   ADC     $98,#$05
20C7 F9 00      MOV     X,$00+Y
20C9 0A 80 0F   OR1     C,$0F80.#0
20CC 8C F9 00   DEC     $00F9
20CF 14 80      OR      A,$80+X
20D1 E6         MOV     A,(X)
20D2 04 00      OR      A,$00
20D4 F6 00 D8   MOV     A,$D800+Y
20D7 20         CLRP
20D8 E0         CLRV
20D9 06         OR      A,(X)
20DA ED         NOTC
20DB FF         STOP
20DC E7 7B      MOV     A,[$7B+X]
20DE FB FF      MOV     Y,$FF+X
20E0 00         NOP
20E1 7F         RETI
20E2 E3 00 FF   BBS     $00,#7,$20E4
20E5 FF         STOP
20E6 0A 6F 93   OR1     C,$136F.#4
20E9 F9 00      MOV     X,$00+Y
20EB 0D         PUSH    PSW
20EC 80         SETC
20ED 08 8C      OR      A,#$8C
20EF F9 00      MOV     X,$00+Y
20F1 0F         BRK
20F2 80         SETC
20F3 ED         NOTC
20F4 82 EE      SET1    $EE.#4
20F6 70 19      BVS     $2111
20F8 E5 0A 93   MOV     A,$930A
20FB F9 00      MOV     X,$00+Y
20FD 0D         PUSH    PSW
20FE 80         SETC
20FF 08 8C      OR      A,#$8C
2101 F9 00      MOV     X,$00+Y
2103 0F         BRK
2104 80         SETC
2105 E6         MOV     A,(X)
2106 04 00      OR      A,$00
2108 F6 00 0E   MOV     A,$0E00+Y
210B 21         TCALL   $2
210C 2A 21 E1   OR1     C,/$0121.#7
210F 14 E2      OR      A,$E2+X
2111 46         EOR     A,(X)
2112 00         NOP
2113 E0         CLRV
2114 0D         PUSH    PSW
2115 FB 50      MOV     Y,$50+X
2117 D2 00      CLR1    $00.#6
2119 E7 3E      MOV     A,[$3E+X]
211B ED         NOTC
211C A0         EI
211D EE         POP     Y
211E 63 1E 63   BBS     $1E,#3,$2184
2121 0F         BRK
2122 80         SETC
2123 ED         NOTC
2124 32 EE      CLR1    $EE.#1
2126 63 0F 80   BBS     $0F,#3,$20A9
2129 00         NOP
212A E1         TCALL   $E
212B 14 E2      OR      A,$E2+X
212D 46         EOR     A,(X)
212E 00         NOP
212F E0         CLRV
2130 04 FB      OR      A,$FB
2132 3C         ROL     A
2133 D2 00      CLR1    $00.#6
2135 E7 3E      MOV     A,[$3E+X]
2137 ED         NOTC
2138 8C EE 63   DEC     $63EE
213B 14 63      OR      A,$63+X
213D 0F         BRK
213E 98 ED 23   ADC     $23,#$ED
2141 EE         POP     Y
2142 63 0F 98   BBS     $0F,#3,$20DD
2145 00         NOP
2146 4A 21 54   AND1    C,$1421.#2
2149 21         TCALL   $2
214A ED         NOTC
214B FF         STOP
214C E7 10      MOV     A,[$10+X]
214E E0         CLRV
214F D5 1A 6F   MOV     $6F1A+X,A
2152 8E         POP     PSW
2153 00         NOP
2154 ED         NOTC
2155 FF         STOP
2156 E7 10      MOV     A,[$10+X]
2158 E0         CLRV
2159 D4 1A      MOV     $1A+X,A
215B 6F         RET
215C 9A 00      SUBW    YA,$00
215E 62 21      SET1    $21.#3
2160 6C 21 ED   ROR     $ED21
2163 FF         STOP
2164 E7 10      MOV     A,[$10+X]
2166 E0         CLRV
2167 D6 1A 6F   MOV     $6F1A+Y,A
216A 95 00 E3   ADC     A,$E300+X
216D 00         NOP
216E FF         STOP
216F F3 ED FF   BBC     $ED,#7,$2171
2172 E7 10      MOV     A,[$10+X]
2174 E0         CLRV
2175 D5 1A 6F   MOV     $6F1A+X,A
2178 93 00 7C   BBC     $00,#4,$21F7
217B 21         TCALL   $2
217C ED         NOTC
217D FF         STOP
217E E7 10      MOV     A,[$10+X]
2180 E0         CLRV
2181 D5 21 6F   MOV     $6F21+X,A
2184 8C 00 8A   DEC     $8A00
2187 21         TCALL   $2
2188 9C         DEC     A
2189 21         TCALL   $2
218A E3 00 C8   BBS     $00,#7,$2155
218D E6         MOV     A,(X)
218E ED         NOTC
218F FF         STOP
2190 E7 10      MOV     A,[$10+X]
2192 E0         CLRV
2193 D3 32 6F   BBC     $32,#6,$2205
2196 93 F9 00   BBC     $F9,#4,$2199
2199 32 90      CLR1    $90.#1
219B 00         NOP
219C E3 00 C8   BBS     $00,#7,$2167
219F E6         MOV     A,(X)
21A0 ED         NOTC
21A1 FF         STOP
21A2 E7 10      MOV     A,[$10+X]
21A4 E0         CLRV
21A5 D8 32      MOV     $32,X
21A7 6F         RET
21A8 93 F9 00   BBC     $F9,#4,$21AB
21AB 32 90      CLR1    $90.#1
21AD 00         NOP
21AE B2 21      CLR1    $21.#5
21B0 C4 21      MOV     $21,A
21B2 E3 00 FF   BBS     $00,#7,$21B4
21B5 EA ED FF   NOT1    $1FED.#7
21B8 E7 10      MOV     A,[$10+X]
21BA E0         CLRV
21BB D8 28      MOV     $28,X
21BD 6F         RET
21BE 85 F9 00   ADC     A,$00F9
21C1 28 9D      AND     A,#$9D
21C3 00         NOP
21C4 ED         NOTC
21C5 FF         STOP
21C6 E7 10      MOV     A,[$10+X]
21C8 E0         CLRV
21C9 D8 28      MOV     $28,X
21CB 6F         RET
21CC 93 F9 00   BBC     $F9,#4,$21CF
21CF 28 8C      AND     A,#$8C
21D1 00         NOP
21D2 D6 21 E8   MOV     $E821+Y,A
21D5 21         TCALL   $2
21D6 E3 00 FF   BBS     $00,#7,$21D8
21D9 F2 ED      CLR1    $ED.#7
21DB FF         STOP
21DC E7 10      MOV     A,[$10+X]
21DE E0         CLRV
21DF D4 1A      MOV     $1A+X,A
21E1 6F         RET
21E2 90 F9      BCC     $21DD
21E4 00         NOP
21E5 1A 8C      DECW    $8C
21E7 00         NOP
21E8 E3 00 FF   BBS     $00,#7,$21EA
21EB F2 ED      CLR1    $ED.#7
21ED FF         STOP
21EE E7 10      MOV     A,[$10+X]
21F0 E0         CLRV
21F1 D4 1A      MOV     $1A+X,A
21F3 6F         RET
21F4 93 F9 00   BBC     $F9,#4,$21F7
21F7 1A 95      DECW    $95
21F9 00         NOP
21FA FE 21      DBNZ    Y,$221D
21FC 08 22      OR      A,#$22
21FE ED         NOTC
21FF FF         STOP
2200 E7 10      MOV     A,[$10+X]
2202 E0         CLRV
2203 D5 1A 6F   MOV     $6F1A+X,A
2206 90 00      BCC     $2208
2208 ED         NOTC
2209 FF         STOP
220A E7 10      MOV     A,[$10+X]
220C E0         CLRV
220D D5 1A 6F   MOV     $6F1A+X,A
2210 8C 00 16   DEC     $1600
2213 22 26      SET1    $26.#1
2215 22 ED      SET1    $ED.#1
2217 FF         STOP
2218 E7 09      MOV     A,[$09+X]
221A E0         CLRV
221B D8 14      MOV     $14,X
221D 6F         RET
221E 8B 14      DEC     $14
2220 69 89 14   CMP     $14,$89
2223 63 89 00   BBS     $89,#3,$2226
2226 ED         NOTC
2227 FF         STOP
2228 E7 09      MOV     A,[$09+X]
222A E0         CLRV
222B D6 0A 3F   MOV     $3F0A+Y,A
222E 8B E0      DEC     $E0
2230 D8 14      MOV     $14,X
2232 6C 89 1E   ROR     $1E89
2235 66         CMP     A,(X)
2236 89 00 3A   ADC     $3A,$00
2239 22 E7      SET1    $E7.#1
223B 7B FB      ROR     $FB+X
223D 64 D2      CMP     A,$D2
223F 00         NOP
2240 E3 00 FF   BBS     $00,#7,$2242
2243 FF         STOP
2244 E1         TCALL   $E
2245 0C E2 26   ASL     $26E2
2248 08 ED      OR      A,#$ED
224A DC         DEC     Y
224B E0         CLRV
224C 0D         PUSH    PSW
224D 26         AND     A,(X)
224E 6F         RET
224F 87 E1      ADC     A,[$E1+X]
2251 0A ED 82   OR1     C,$02ED.#4
2254 EE         POP     Y
2255 C8 1E      CMP     X,#$1E
2257 E5 28 87   MOV     A,$8728
225A E6         MOV     A,(X)
225B 06         OR      A,(X)
225C 00         NOP
225D 00         NOP
225E 00         NOP
225F 61         TCALL   $6
2260 22 E7      SET1    $E7.#1
2262 7B FB      ROR     $FB+X
2264 64 D2      CMP     A,$D2
2266 00         NOP
2267 ED         NOTC
2268 BE         DAS     A
2269 E1         TCALL   $E
226A 0C E2 2A   ASL     $2AE2
226D 08 E0      OR      A,#$E0
226F 12 16      CLR1    $16.#0
2271 6F         RET
2272 A4 F9      SBC     A,$F9
2274 00         NOP
2275 16 80 E0   OR      A,$E080+Y
2278 0D         PUSH    PSW
2279 14 80      OR      A,$80+X
227B ED         NOTC
227C 78 EE A8   CMP     $A8,#$EE
227F 08 E5      OR      A,#$E5
2281 E1         TCALL   $E
2282 0C E2 2A   ASL     $2AE2
2285 08 E0      OR      A,#$E0
2287 12 16      CLR1    $16.#0
2289 98 F9 00   ADC     $00,#$F9
228C 16 80 E0   OR      A,$E080+Y
228F 0D         PUSH    PSW
2290 14 80      OR      A,$80+X
2292 E6         MOV     A,(X)
2293 04 00      OR      A,$00
2295 00         NOP
2296 00         NOP
2297 9B 22      DEC     $22+X
2299 00         NOP
229A 00         NOP
229B AB 22      INC     $22
229D E6         MOV     A,(X)
229E 22 17      SET1    $17.#1
22A0 23 2C 23   BBS     $2C,#1,$22C6
22A3 41         TCALL   $4
22A4 23 7B 23   BBS     $7B,#1,$22CA
22A7 00         NOP
22A8 00         NOP
22A9 00         NOP
22AA 00         NOP
22AB FA 14 E0   MOV     $E0,$14
22AE 0D         PUSH    PSW
22AF ED         NOTC
22B0 FF         STOP
22B1 E7 1F      MOV     A,[$1F+X]
22B3 E4 01      MOV     A,$01
22B5 C8 FB      CMP     X,#$FB
22B7 9B 69      DEC     $69+X
22B9 00         NOP
22BA EA F4 E5   NOT1    $05F4.#7
22BD 01         TCALL   $0
22BE 0F         BRK
22BF A4 E6      SBC     A,$E6
22C1 0A 00 CE   OR1     C,$0E00.#6
22C4 01         TCALL   $0
22C5 6F         RET
22C6 9C         DEC     A
22C7 E1         TCALL   $E
22C8 08 E2      OR      A,#$E2
22CA 5B 0C      LSR     $0C+X
22CC EE         POP     Y
22CD 5B 1E      LSR     $1E+X
22CF E5 01 0F   MOV     A,$0F01
22D2 B4 AF      SBC     A,$AF+X
22D4 AE         POP     A
22D5 AD AC      CMP     Y,#$AC
22D7 AB AA      INC     $AA
22D9 A9 A8 A7   SBC     $A7,$A8
22DC A6         SBC     A,(X)
22DD A5 A4 E6   SBC     A,$E6A4
22E0 07 00      OR      A,[$00+X]
22E2 00         NOP
22E3 03 C9 00   BBS     $C9,#0,$22E6
22E6 E1         TCALL   $E
22E7 11         TCALL   $1
22E8 E2 69      SET1    $69.#7
22EA 03 E0 09   BBS     $E0,#0,$22F6
22ED ED         NOTC
22EE FF         STOP
22EF E7 1F      MOV     A,[$1F+X]
22F1 FB 9B      MOV     Y,$9B+X
22F3 69 00 0A   CMP     $0A,$00
22F6 6F         RET
22F7 B4 F9      SBC     A,$F9+X
22F9 00         NOP
22FA 0A 8C EE   OR1     C,$0E8C.#7
22FD 5B 0F      LSR     $0F+X
22FF E5 01 0F   MOV     A,$0F01
2302 B4 AF      SBC     A,$AF+X
2304 AE         POP     A
2305 AD AC      CMP     Y,#$AC
2307 AB AA      INC     $AA
2309 A9 A8 A7   SBC     $A7,$A8
230C A6         SBC     A,(X)
230D A5 01 6F   SBC     A,$6F01
2310 A4 E6      SBC     A,$E6
2312 07 00      OR      A,[$00+X]
2314 00         NOP
2315 04 C9      OR      A,$C9
2317 E1         TCALL   $E
2318 03 E2 69   BBS     $E2,#0,$2384
231B 11         TCALL   $1
231C E0         CLRV
231D 0B ED      ASL     $ED
231F F0 E7      BEQ     $2308
2321 1F FB 9B   JMP     [$9BFB+X]
2324 69 00 EA   CMP     $EA,$00
2327 0C EF B5   ASL     $B5EF
232A 23 01 E1   BBS     $01,#1,$230E
232D 0C E2 69   ASL     $69E2
2330 08 E0      OR      A,#$E0
2332 0A ED DC   OR1     C,$1CED.#6
2335 E7 1F      MOV     A,[$1F+X]
2337 FB 8F      MOV     Y,$8F+X
2339 64 00      CMP     A,$00
233B EA 0B EF   NOT1    $0F0B.#7
233E B5 23 01   SBC     A,$0123+X
2341 E1         TCALL   $E
2342 05 E2 69   OR      A,$69E2
2345 0F         BRK
2346 E0         CLRV
2347 0D         PUSH    PSW
2348 ED         NOTC
2349 C8 E7      CMP     X,#$E7
234B 1F E4 01   JMP     [$01E4+X]
234E C8 FB      CMP     X,#$FB
2350 9B 69      DEC     $69+X
2352 00         NOP
2353 EA F5 03   NOT1    $03F5.#0
2356 C9 E5 01   MOV     $01E5,X
2359 0F         BRK
235A A4 EE      SBC     A,$EE
235C 5B 14      LSR     $14+X
235E E6         MOV     A,(X)
235F 0A 00 CE   OR1     C,$0E00.#6
2362 01         TCALL   $0
2363 6F         RET
2364 9C         DEC     A
2365 E5 01 0F   MOV     A,$0F01
2368 B4 AF      SBC     A,$AF+X
236A AE         POP     A
236B AD AC      CMP     Y,#$AC
236D AB AA      INC     $AA
236F A9 A8 A7   SBC     $A7,$A8
2372 A6         SBC     A,(X)
2373 A5 01 6F   SBC     A,$6F01
2376 A4 E6      SBC     A,$E6
2378 07 00      OR      A,[$00+X]
237A 00         NOP
237B E1         TCALL   $E
237C 0F         BRK
237D E2 69      SET1    $69.#7
237F 05 E0 0D   OR      A,$0DE0
2382 ED         NOTC
2383 F0 E7      BEQ     $236C
2385 1F E4 01   JMP     [$01E4+X]
2388 C8 FB      CMP     X,#$FB
238A 9B 69      DEC     $69+X
238C 00         NOP
238D EA F6 E5   NOT1    $05F6.#7
2390 01         TCALL   $0
2391 0F         BRK
2392 A4 E6      SBC     A,$E6
2394 0A 00 CE   OR1     C,$0E00.#6
2397 01         TCALL   $0
2398 6F         RET
2399 9C         DEC     A
239A EE         POP     Y
239B 5B 14      LSR     $14+X
239D E5 01 0F   MOV     A,$0F01
23A0 B4 AF      SBC     A,$AF+X
23A2 AE         POP     A
23A3 AD AC      CMP     Y,#$AC
23A5 AB AA      INC     $AA
23A7 A9 A8 A7   SBC     $A7,$A8
23AA A6         SBC     A,(X)
23AB A5 01 6F   SBC     A,$6F01
23AE A4 E6      SBC     A,$E6
23B0 07 00      OR      A,[$00+X]
23B2 00         NOP
23B3 03 C9 E5   BBS     $C9,#0,$239B
23B6 01         TCALL   $0
23B7 0F         BRK
23B8 A4 E6      SBC     A,$E6
23BA 0A 00 CE   OR1     C,$0E00.#6
23BD 01         TCALL   $0
23BE 6F         RET
23BF 8C EE 5B   DEC     $5BEE
23C2 0F         BRK
23C3 E5 01 0F   MOV     A,$0F01
23C6 B4 AF      SBC     A,$AF+X
23C8 AE         POP     A
23C9 AD AC      CMP     Y,#$AC
23CB AB AA      INC     $AA
23CD A9 A8 A7   SBC     $A7,$A8
23D0 A6         SBC     A,(X)
23D1 A5 01 6F   SBC     A,$6F01
23D4 A4 E6      SBC     A,$E6
23D6 07 00      OR      A,[$00+X]
23D8 00         NOP
23D9 03 C9 00   BBS     $C9,#0,$23DC
23DC E0         CLRV
23DD 23 00 00   BBS     $00,#1,$23E0
23E0 F0 23      BEQ     $2405
23E2 46         EOR     A,(X)
23E3 24 9B      AND     A,$9B
23E5 24 F1      AND     A,$F1
23E7 24 42      AND     A,$42
23E9 25 9A 25   AND     A,$259A
23EC 00         NOP
23ED 00         NOP
23EE 00         NOP
23EF 00         NOP
23F0 FA 14 E1   MOV     $E1,$14
23F3 14 E2      OR      A,$E2+X
23F5 A2 00      SET1    $00.#5
23F7 E0         CLRV
23F8 09 ED FF   OR      $FF,$ED
23FB E7 2D      MOV     A,[$2D+X]
23FD E3 00 FF   BBS     $00,#7,$23FF
2400 FF         STOP
2401 FB FF      MOV     Y,$FF+X
2403 00         NOP
2404 7F         RETI
2405 EA 00 E5   NOT1    $0500.#7
2408 01         TCALL   $0
2409 0F         BRK
240A A4 01      SBC     A,$01
240C 0E A1 01   TSET1   $01A1
240F 0D         PUSH    PSW
2410 A3 01 0B   BBS     $01,#5,$241E
2413 A8 01      SBC     A,#$01
2415 09 9C 01   OR      $01,$9C
2418 67 9F      CMP     A,[$9F+X]
241A E6         MOV     A,(X)
241B 03 F6 00   BBS     $F6,#0,$241E
241E EA 02 E5   NOT1    $0502.#7
2421 01         TCALL   $0
2422 0F         BRK
2423 A4 A1      SBC     A,$A1
2425 A3 A8 9C   BBS     $A8,#5,$23C4
2428 9F         XCN     A
2429 EA 01 01   NOT1    $0101.#0
242C 0D         PUSH    PSW
242D A4 A1      SBC     A,$A1
242F A3 A8 9C   BBS     $A8,#5,$23CE
2432 9F         XCN     A
2433 EA 00 01   NOT1    $0100.#0
2436 0B A4      ASL     $A4
2438 A1         TCALL   $A
2439 A3 A8 9C   BBS     $A8,#5,$23D8
243C 01         TCALL   $0
243D 6B 9F      ROR     $9F
243F E6         MOV     A,(X)
2440 08 EC      OR      A,#$EC
2442 F6 12 C9   MOV     A,$C912+Y
2445 00         NOP
2446 E1         TCALL   $E
2447 14 E2      OR      A,$E2+X
2449 B2 00      CLR1    $00.#5
244B E0         CLRV
244C 09 ED FF   OR      $FF,$ED
244F E7 2D      MOV     A,[$2D+X]
2451 E3 00 FF   BBS     $00,#7,$2453
2454 FF         STOP
2455 FB FF      MOV     Y,$FF+X
2457 00         NOP
2458 7F         RETI
2459 EA FF F4   NOT1    $14FF.#7
245C 64 E5      CMP     A,$E5
245E 03 0F A4   BBS     $0F,#0,$2405
2461 01         TCALL   $0
2462 0E A1 01   TSET1   $01A1
2465 0D         PUSH    PSW
2466 A3 01 0B   BBS     $01,#5,$2474
2469 A8 01      SBC     A,#$01
246B 09 9C 01   OR      $01,$9C
246E 67 9F      CMP     A,[$9F+X]
2470 E6         MOV     A,(X)
2471 02 EC      SET1    $EC.#0
2473 00         NOP
2474 EA 02 E5   NOT1    $0502.#7
2477 01         TCALL   $0
2478 0F         BRK
2479 A4 A1      SBC     A,$A1
247B A3 A8 9C   BBS     $A8,#5,$241A
247E 9F         XCN     A
247F EA 01 01   NOT1    $0101.#0
2482 0D         PUSH    PSW
2483 A4 A1      SBC     A,$A1
2485 A3 A8 9C   BBS     $A8,#5,$2424
2488 9F         XCN     A
2489 EA 00 01   NOT1    $0100.#0
248C 0B A4      ASL     $A4
248E A1         TCALL   $A
248F A3 A8 9C   BBS     $A8,#5,$242E
2492 01         TCALL   $0
2493 6B 9F      ROR     $9F
2495 E6         MOV     A,(X)
2496 09 EC F6   OR      $F6,$EC
2499 0C C9 E0   ASL     $E0C9
249C 07 ED      OR      A,[$ED+X]
249E FF         STOP
249F E7 2D      MOV     A,[$2D+X]
24A1 E3 00 FF   BBS     $00,#7,$24A3
24A4 FF         STOP
24A5 FB FF      MOV     Y,$FF+X
24A7 00         NOP
24A8 7F         RETI
24A9 EA 0C E1   NOT1    $010C.#7
24AC 0D         PUSH    PSW
24AD E5 01 0F   MOV     A,$0F01
24B0 A4 01      SBC     A,$01
24B2 0E A1 01   TSET1   $01A1
24B5 0D         PUSH    PSW
24B6 A3 01 0B   BBS     $01,#5,$24C4
24B9 A8 01      SBC     A,#$01
24BB 09 9C 01   OR      $01,$9C
24BE 67 9F      CMP     A,[$9F+X]
24C0 E6         MOV     A,(X)
24C1 03 F6 00   BBS     $F6,#0,$24C4
24C4 E0         CLRV
24C5 08 ED      OR      A,#$ED
24C7 FF         STOP
24C8 EA FA E5   NOT1    $05FA.#7
24CB 01         TCALL   $0
24CC 0F         BRK
24CD A4 A1      SBC     A,$A1
24CF A3 A8 9C   BBS     $A8,#5,$246E
24D2 01         TCALL   $0
24D3 6F         RET
24D4 9F         XCN     A
24D5 EA F9 01   NOT1    $01F9.#0
24D8 0D         PUSH    PSW
24D9 A4 A1      SBC     A,$A1
24DB A3 A8 9C   BBS     $A8,#5,$247A
24DE 01         TCALL   $0
24DF 6D         PUSH    Y
24E0 9F         XCN     A
24E1 EA F8 01   NOT1    $01F8.#0
24E4 0B A4      ASL     $A4
24E6 A1         TCALL   $A
24E7 A3 A8 9C   BBS     $A8,#5,$2486
24EA 01         TCALL   $0
24EB 6B 9F      ROR     $9F
24ED E6         MOV     A,(X)
24EE 09 EC 00   OR      $00,$EC
24F1 E0         CLRV
24F2 0D         PUSH    PSW
24F3 ED         NOTC
24F4 DC         DEC     Y
24F5 E7 2D      MOV     A,[$2D+X]
24F7 E3 00 FF   BBS     $00,#7,$24F9
24FA FF         STOP
24FB FB FF      MOV     Y,$FF+X
24FD 00         NOP
24FE 7F         RETI
24FF EA 00 E5   NOT1    $0500.#7
2502 03 0D A4   BBS     $0D,#0,$24A9
2505 01         TCALL   $0
2506 0B A1      ASL     $A1
2508 01         TCALL   $0
2509 09 A3 01   OR      $01,$A3
250C 07 A8      OR      A,[$A8+X]
250E 01         TCALL   $0
250F 05 9C 01   OR      A,$019C
2512 63 9F E6   BBS     $9F,#3,$24FB
2515 02 EC      SET1    $EC.#0
2517 00         NOP
2518 EA FA EE   NOT1    $0EFA.#7
251B A2 00      SET1    $00.#5
251D E5 01 0D   MOV     A,$0D01
2520 A4 A1      SBC     A,$A1
2522 A3 A8 9C   BBS     $A8,#5,$24C1
2525 9F         XCN     A
2526 EA F9 01   NOT1    $01F9.#0
2529 0B A4      ASL     $A4
252B A1         TCALL   $A
252C A3 A8 9C   BBS     $A8,#5,$24CB
252F 9F         XCN     A
2530 EA F8 01   NOT1    $01F8.#0
2533 09 A4 A1   OR      $A1,$A4
2536 A3 A8 9C   BBS     $A8,#5,$24D5
2539 01         TCALL   $0
253A 69 9F E6   CMP     $E6,$9F
253D 09 00 00   OR      $00,$00
2540 02 C9      SET1    $C9.#0
2542 E0         CLRV
2543 07 ED      OR      A,[$ED+X]
2545 FF         STOP
2546 E7 2D      MOV     A,[$2D+X]
2548 E3 00 FF   BBS     $00,#7,$254A
254B FF         STOP
254C FB FF      MOV     Y,$FF+X
254E 00         NOP
254F 7F         RETI
2550 EA 00 E1   NOT1    $0100.#7
2553 00         NOP
2554 E5 01 0F   MOV     A,$0F01
2557 A4 01      SBC     A,$01
2559 0E A1 01   TSET1   $01A1
255C 0D         PUSH    PSW
255D A3 01 0B   BBS     $01,#5,$256B
2560 A8 01      SBC     A,#$01
2562 09 9C 01   OR      $01,$9C
2565 67 9F      CMP     A,[$9F+X]
2567 EA 0B E6   NOT1    $060B.#7
256A 03 00 00   BBS     $00,#0,$256D
256D E0         CLRV
256E 0E ED FF   TSET1   $FFED
2571 EA FA E5   NOT1    $05FA.#7
2574 01         TCALL   $0
2575 09 A4 A1   OR      $A1,$A4
2578 A3 A8 9C   BBS     $A8,#5,$2517
257B 01         TCALL   $0
257C 69 9F EA   CMP     $EA,$9F
257F F9 01      MOV     X,$01+Y
2581 0B A4      ASL     $A4
2583 A1         TCALL   $A
2584 A3 A8 9C   BBS     $A8,#5,$2523
2587 01         TCALL   $0
2588 6B 9F      ROR     $9F
258A EA F8 01   NOT1    $01F8.#0
258D 0D         PUSH    PSW
258E A4 A1      SBC     A,$A1
2590 A3 A8 9C   BBS     $A8,#5,$252F
2593 01         TCALL   $0
2594 6D         PUSH    Y
2595 9F         XCN     A
2596 E6         MOV     A,(X)
2597 09 EC 00   OR      $00,$EC
259A E0         CLRV
259B 0C ED B4   ASL     $B4ED
259E E7 2D      MOV     A,[$2D+X]
25A0 FB FF      MOV     Y,$FF+X
25A2 00         NOP
25A3 7F         RETI
25A4 EA 18 E1   NOT1    $0118.#7
25A7 00         NOP
25A8 E2 B4      SET1    $B4.#7
25AA 14 E5      OR      A,$E5+X
25AC 01         TCALL   $0
25AD 07 A4      OR      A,[$A4+X]
25AF 01         TCALL   $0
25B0 09 A1 01   OR      $01,$A1
25B3 0B A3      ASL     $A3
25B5 01         TCALL   $0
25B6 0D         PUSH    PSW
25B7 A8 01      SBC     A,#$01
25B9 0F         BRK
25BA 9C         DEC     A
25BB 01         TCALL   $0
25BC 6D         PUSH    Y
25BD 9F         XCN     A
25BE EA 0B E6   NOT1    $060B.#7
25C1 03 00 00   BBS     $00,#0,$25C4
25C4 E0         CLRV
25C5 0D         PUSH    PSW
25C6 ED         NOTC
25C7 C8 EE      CMP     X,#$EE
25C9 A2 28      SET1    $28.#5
25CB EA FA E5   NOT1    $05FA.#7
25CE 01         TCALL   $0
25CF 09 A4 A1   OR      $A1,$A4
25D2 A3 A8 9C   BBS     $A8,#5,$2571
25D5 01         TCALL   $0
25D6 69 9F EA   CMP     $EA,$9F
25D9 F9 01      MOV     X,$01+Y
25DB 0B A4      ASL     $A4
25DD A1         TCALL   $A
25DE A3 A8 9C   BBS     $A8,#5,$257D
25E1 01         TCALL   $0
25E2 6B 9F      ROR     $9F
25E4 EA F8 01   NOT1    $01F8.#0
25E7 0D         PUSH    PSW
25E8 A4 A1      SBC     A,$A1
25EA A3 A8 9C   BBS     $A8,#5,$2589
25ED 01         TCALL   $0
25EE 6D         PUSH    Y
25EF 9F         XCN     A
25F0 E6         MOV     A,(X)
25F1 09 00 00   OR      $00,$00
25F4 F8 25      MOV     X,$25
25F6 00         NOP
25F7 00         NOP
25F8 08 26      OR      A,#$26
25FA 26         AND     A,(X)
25FB 26         AND     A,(X)
25FC 45 26 63   EOR     A,$6326
25FF 26         AND     A,(X)
2600 8F 26 BC   MOV     $BC,#$26
2603 26         AND     A,(X)
2604 E9 26 12   MOV     X,$1226
2607 27 FA      AND     A,[$FA+X]
2609 0F         BRK
260A E0         CLRV
260B 0A E7 1F   OR1     C,$1FE7.#0
260E EA 0C E1   NOT1    $010C.#7
2611 04 EB      OR      A,$EB
2613 03 12 55   BBS     $12,#0,$266B
2616 FB 82      MOV     Y,$82+X
2618 11         TCALL   $1
2619 00         NOP
261A ED         NOTC
261B E6         MOV     A,(X)
261C 12 77      CLR1    $77.#0
261E AB 12      INC     $12
2620 7A B0      ADDW    YA,$B0
2622 50 68      BVC     $268C
2624 BC         INC     A
2625 00         NOP
2626 E0         CLRV
2627 0A E7 1F   OR1     C,$1FE7.#0
262A EA 0C E1   NOT1    $010C.#7
262D 0A EB 03   OR1     C,$03EB.#0
2630 12 55      CLR1    $55.#0
2632 FB 82      MOV     Y,$82+X
2634 11         TCALL   $1
2635 00         NOP
2636 ED         NOTC
2637 00         NOP
2638 06         OR      A,(X)
2639 78 AB ED   CMP     $ED,#$AB
263C E6         MOV     A,(X)
263D 12 B0      CLR1    $B0.#0
263F 12 7B      CLR1    $7B.#0
2641 B5 4A 68   SBC     A,$684A+X
2644 C8 E0      CMP     X,#$E0
2646 0A E7 1F   OR1     C,$1FE7.#0
2649 EA 0C E1   NOT1    $010C.#7
264C 10 EB      BPL     $2639
264E 03 12 55   BBS     $12,#0,$26A6
2651 FB 82      MOV     Y,$82+X
2653 11         TCALL   $1
2654 00         NOP
2655 ED         NOTC
2656 00         NOP
2657 0C 79 AB   ASL     $AB79
265A ED         NOTC
265B E6         MOV     A,(X)
265C 12 B2      CLR1    $B2.#0
265E 06         OR      A,(X)
265F BA 50      MOVW    YA,$50
2661 67 B0      CMP     A,[$B0+X]
2663 E0         CLRV
2664 0A E7 1F   OR1     C,$1FE7.#0
2667 EA 0C E1   NOT1    $010C.#7
266A 0D         PUSH    PSW
266B EB 03      MOV     Y,$03
266D 12 55      CLR1    $55.#0
266F FB 8C      MOV     Y,$8C+X
2671 11         TCALL   $1
2672 00         NOP
2673 F4 3C      MOV     A,$3C+X
2675 ED         NOTC
2676 00         NOP
2677 06         OR      A,(X)
2678 77 AB      CMP     A,[$AB]+Y
267A ED         NOTC
267B 82 AB      SET1    $AB.#4
267D 06         OR      A,(X)
267E 78 B0 06   CMP     $06,#$B0
2681 79         CMP     (X),(Y)
2682 B2 06      CLR1    $06.#5
2684 7A B0      ADDW    YA,$B0
2686 06         OR      A,(X)
2687 7B B5      ROR     $B5+X
2689 06         OR      A,(X)
268A 7A BA      ADDW    YA,$BA
268C 4A 79 BC   AND1    C,$1C79.#5
268F E0         CLRV
2690 0A E7 1F   OR1     C,$1FE7.#0
2693 EA 0C E1   NOT1    $010C.#7
2696 07 EB      OR      A,[$EB+X]
2698 03 12 55   BBS     $12,#0,$26F0
269B FB 8C      MOV     Y,$8C+X
269D 11         TCALL   $1
269E 00         NOP
269F F4 28      MOV     A,$28+X
26A1 ED         NOTC
26A2 00         NOP
26A3 0C 77 AB   ASL     $AB77
26A6 ED         NOTC
26A7 82 06      SET1    $06.#4
26A9 AB 06      INC     $06
26AB 78 B0 06   CMP     $06,#$B0
26AE 79         CMP     (X),(Y)
26AF B2 06      CLR1    $06.#5
26B1 7A B0      ADDW    YA,$B0
26B3 06         OR      A,(X)
26B4 7B B5      ROR     $B5+X
26B6 06         OR      A,(X)
26B7 7A BA      ADDW    YA,$BA
26B9 44 79      EOR     A,$79
26BB BC         INC     A
26BC E0         CLRV
26BD 0A E7 1F   OR1     C,$1FE7.#0
26C0 EA 0C E1   NOT1    $010C.#7
26C3 0A EB 03   OR1     C,$03EB.#0
26C6 12 55      CLR1    $55.#0
26C8 FB 78      MOV     Y,$78+X
26CA 11         TCALL   $1
26CB 00         NOP
26CC F4 14      MOV     A,$14+X
26CE ED         NOTC
26CF 00         NOP
26D0 12 77      CLR1    $77.#0
26D2 AB ED      INC     $ED
26D4 82 06      SET1    $06.#4
26D6 AB 06      INC     $06
26D8 78 B0 06   CMP     $06,#$B0
26DB 79         CMP     (X),(Y)
26DC B2 06      CLR1    $06.#5
26DE 7A B0      ADDW    YA,$B0
26E0 06         OR      A,(X)
26E1 7B B5      ROR     $B5+X
26E3 06         OR      A,(X)
26E4 7A BA      ADDW    YA,$BA
26E6 3E 79      CMP     X,$79
26E8 BC         INC     A
26E9 E0         CLRV
26EA 0C E7 1F   ASL     $1FE7
26ED EA 0C E1   NOT1    $010C.#7
26F0 0A EB 03   OR1     C,$03EB.#0
26F3 12 55      CLR1    $55.#0
26F5 FB 96      MOV     Y,$96+X
26F7 11         TCALL   $1
26F8 00         NOP
26F9 F4 0A      MOV     A,$0A+X
26FB ED         NOTC
26FC 00         NOP
26FD 03 77 AB   BBS     $77,#0,$26AB
2700 ED         NOTC
2701 D2 06      CLR1    $06.#6
2703 AB 06      INC     $06
2705 78 B0 06   CMP     $06,#$B0
2708 79         CMP     (X),(Y)
2709 B2 B0      CLR1    $B0.#5
270B B5 06 78   SBC     A,$7806+X
270E BA 4D      MOVW    YA,$4D
2710 75 BC E0   CMP     A,$E0BC+X
2713 0C E7 1F   ASL     $1FE7
2716 EA 0C E1   NOT1    $010C.#7
2719 0A EB 03   OR1     C,$03EB.#0
271C 12 55      CLR1    $55.#0
271E FB 82      MOV     Y,$82+X
2720 11         TCALL   $1
2721 00         NOP
2722 F4 32      MOV     A,$32+X
2724 ED         NOTC
2725 96 06 77   ADC     A,$7706+Y
2728 AB 06      INC     $06
272A 78 B0 06   CMP     $06,#$B0
272D 79         CMP     (X),(Y)
272E B2 B0      CLR1    $B0.#5
2730 B5 06 78   SBC     A,$7806+X
2733 BA 50      MOVW    YA,$50
2735 75 BC 3B   CMP     A,$3BBC+X
2738 27 00      AND     A,[$00+X]
273A 00         NOP
273B 4B 27      LSR     $27
273D 8C 27 CA   DEC     $CA27
2740 27 08      AND     A,[$08+X]
2742 28 48      AND     A,#$48
2744 28 64      AND     A,#$64
2746 28 84      AND     A,#$84
2748 28 A4      AND     A,#$A4
274A 28 FA      AND     A,#$FA
274C 14 E0      OR      A,$E0+X
274E 0C E7 14   ASL     $14E7
2751 EB 03      MOV     Y,$03
2753 12 55      CLR1    $55.#0
2755 FB 8C      MOV     Y,$8C+X
2757 0D         PUSH    PSW
2758 00         NOP
2759 F4 0F      MOV     A,$0F+X
275B ED         NOTC
275C 00         NOP
275D 0C 18 AF   ASL     $AF18
2760 ED         NOTC
2761 55 03 79   EOR     A,$7903+X
2764 AF         MOV     (X)+,A
2765 03 7A B0   BBS     $7A,#0,$2718
2768 03 7B B4   BBS     $7B,#0,$271F
276B 03 7C B7   BBS     $7C,#0,$2725
276E 03 7D BB   BBS     $7D,#0,$272C
2771 03 7E BC   BBS     $7E,#0,$2730
2774 03 7F C0   BBS     $7F,#0,$2737
2777 03 7E BC   BBS     $7E,#0,$2736
277A 03 7D BB   BBS     $7D,#0,$2738
277D 03 7C B7   BBS     $7C,#0,$2737
2780 03 7B B4   BBS     $7B,#0,$2737
2783 03 7A B0   BBS     $7A,#0,$2736
2786 03 79 AF   BBS     $79,#0,$2738
2789 2A C8 00   OR1     C,/$00C8.#0
278C E0         CLRV
278D 0C E7 14   ASL     $14E7
2790 EB 03      MOV     Y,$03
2792 12 55      CLR1    $55.#0
2794 FB 8C      MOV     Y,$8C+X
2796 0D         PUSH    PSW
2797 00         NOP
2798 F4 1E      MOV     A,$1E+X
279A ED         NOTC
279B 00         NOP
279C 09 18 AF   OR      $AF,$18
279F ED         NOTC
27A0 50 03      BVC     $27A5
27A2 79         CMP     (X),(Y)
27A3 AF         MOV     (X)+,A
27A4 03 7A B0   BBS     $7A,#0,$2757
27A7 03 7B B4   BBS     $7B,#0,$275E
27AA 03 7C B7   BBS     $7C,#0,$2764
27AD 03 7D BB   BBS     $7D,#0,$276B
27B0 03 7E BC   BBS     $7E,#0,$276F
27B3 03 7F C0   BBS     $7F,#0,$2776
27B6 03 7E BC   BBS     $7E,#0,$2775
27B9 03 7D BB   BBS     $7D,#0,$2777
27BC 03 7C B7   BBS     $7C,#0,$2776
27BF 03 7B B4   BBS     $7B,#0,$2776
27C2 03 7A B0   BBS     $7A,#0,$2775
27C5 03 79 AF   BBS     $79,#0,$2777
27C8 2D         PUSH    A
27C9 C8 E0      CMP     X,#$E0
27CB 0C E7 14   ASL     $14E7
27CE EB 03      MOV     Y,$03
27D0 12 55      CLR1    $55.#0
27D2 FB 8C      MOV     Y,$8C+X
27D4 0D         PUSH    PSW
27D5 00         NOP
27D6 F4 2D      MOV     A,$2D+X
27D8 ED         NOTC
27D9 00         NOP
27DA 06         OR      A,(X)
27DB 18 AF ED   OR      $ED,#$AF
27DE 50 03      BVC     $27E3
27E0 79         CMP     (X),(Y)
27E1 AF         MOV     (X)+,A
27E2 03 7A B0   BBS     $7A,#0,$2795
27E5 03 7B B4   BBS     $7B,#0,$279C
27E8 03 7C B7   BBS     $7C,#0,$27A2
27EB 03 7D BB   BBS     $7D,#0,$27A9
27EE 03 7E BC   BBS     $7E,#0,$27AD
27F1 03 7F C0   BBS     $7F,#0,$27B4
27F4 03 7E BC   BBS     $7E,#0,$27B3
27F7 03 7D BB   BBS     $7D,#0,$27B5
27FA 03 7C B7   BBS     $7C,#0,$27B4
27FD 03 7B B4   BBS     $7B,#0,$27B4
2800 03 7A B0   BBS     $7A,#0,$27B3
2803 03 79 AF   BBS     $79,#0,$27B5
2806 30 C8      BMI     $27D0
2808 E0         CLRV
2809 0C ED 00   ASL     $00ED
280C E7 14      MOV     A,[$14+X]
280E EB 03      MOV     Y,$03
2810 12 55      CLR1    $55.#0
2812 FB 8C      MOV     Y,$8C+X
2814 0D         PUSH    PSW
2815 00         NOP
2816 F4 3C      MOV     A,$3C+X
2818 ED         NOTC
2819 00         NOP
281A 03 18 AF   BBS     $18,#0,$27CC
281D ED         NOTC
281E 46         EOR     A,(X)
281F 03 79 AF   BBS     $79,#0,$27D1
2822 03 7A B0   BBS     $7A,#0,$27D5
2825 03 7B B4   BBS     $7B,#0,$27DC
2828 03 7C B7   BBS     $7C,#0,$27E2
282B 03 7D BB   BBS     $7D,#0,$27E9
282E 03 7E BC   BBS     $7E,#0,$27ED
2831 03 7F C0   BBS     $7F,#0,$27F4
2834 03 7E BC   BBS     $7E,#0,$27F3
2837 03 7D BB   BBS     $7D,#0,$27F5
283A 03 7C B7   BBS     $7C,#0,$27F4
283D 03 7B B4   BBS     $7B,#0,$27F4
2840 03 7A B0   BBS     $7A,#0,$27F3
2843 03 79 AF   BBS     $79,#0,$27F5
2846 33 C8 E0   BBC     $C8,#1,$2829
2849 0C ED 00   ASL     $00ED
284C E7 14      MOV     A,[$14+X]
284E EB 03      MOV     Y,$03
2850 12 55      CLR1    $55.#0
2852 FB 96      MOV     Y,$96+X
2854 0D         PUSH    PSW
2855 00         NOP
2856 ED         NOTC
2857 DC         DEC     Y
2858 0C 79 AF   ASL     $AF79
285B 0C 7D BB   ASL     $BB7D
285E BB 0C      INC     $0C+X
2860 79         CMP     (X),(Y)
2861 AF         MOV     (X)+,A
2862 2D         PUSH    A
2863 C8 E0      CMP     X,#$E0
2865 0C ED 00   ASL     $00ED
2868 E7 14      MOV     A,[$14+X]
286A EB 03      MOV     Y,$03
286C 12 55      CLR1    $55.#0
286E FB 96      MOV     Y,$96+X
2870 0D         PUSH    PSW
2871 00         NOP
2872 ED         NOTC
2873 00         NOP
2874 03 18 B0   BBS     $18,#0,$2827
2877 ED         NOTC
2878 DC         DEC     Y
2879 0C 7A B0   ASL     $B07A
287C 0C 7E BC   ASL     $BC7E
287F 0C 7C B7   ASL     $B77C
2882 36 C8 E0   AND     A,$E0C8+Y
2885 0C ED 00   ASL     $00ED
2888 E7 14      MOV     A,[$14+X]
288A EB 03      MOV     Y,$03
288C 12 55      CLR1    $55.#0
288E FB 96      MOV     Y,$96+X
2890 0D         PUSH    PSW
2891 00         NOP
2892 ED         NOTC
2893 00         NOP
2894 06         OR      A,(X)
2895 18 B4 ED   OR      $ED,#$B4
2898 DC         DEC     Y
2899 0C 7B B4   ASL     $B47B
289C 0C 7F C0   ASL     $C07F
289F 09 7B B4   OR      $B4,$7B
28A2 36 C8 E0   AND     A,$E0C8+Y
28A5 0C ED 00   ASL     $00ED
28A8 E7 14      MOV     A,[$14+X]
28AA EB 03      MOV     Y,$03
28AC 12 55      CLR1    $55.#0
28AE FB 96      MOV     Y,$96+X
28B0 0D         PUSH    PSW
28B1 00         NOP
28B2 ED         NOTC
28B3 00         NOP
28B4 09 18 B7   OR      $B7,$18
28B7 ED         NOTC
28B8 DC         DEC     Y
28B9 0C 7C B7   ASL     $B77C
28BC 0C 7E BC   ASL     $BC7E
28BF 06         OR      A,(X)
28C0 7A B0      ADDW    YA,$B0
28C2 36 C8 C8   AND     A,$C8C8+Y
28C5 28 00      AND     A,#$00
28C7 00         NOP
28C8 D8 28      MOV     $28,X
28CA 20         CLRP
28CB 29 43 29   AND     $29,$43
28CE 67 29      CMP     A,[$29+X]
28D0 8F 29 A4   MOV     $A4,#$29
28D3 29 B9 29   AND     $29,$B9
28D6 CE         POP     X
28D7 29 FA 14   AND     $14,$FA
28DA E1         TCALL   $E
28DB 14 E2      OR      A,$E2+X
28DD FF         STOP
28DE 00         NOP
28DF E0         CLRV
28E0 0D         PUSH    PSW
28E1 E7 7B      MOV     A,[$7B+X]
28E3 ED         NOTC
28E4 E6         MOV     A,(X)
28E5 E3 00 FF   BBS     $00,#7,$28E7
28E8 FF         STOP
28E9 FB FF      MOV     Y,$FF+X
28EB 00         NOP
28EC 7F         RETI
28ED 1E 0F 93   CMP     X,$930F
28F0 F9 00      MOV     X,$00+Y
28F2 1E 80 0A   CMP     X,$0A80
28F5 8E         POP     PSW
28F6 F9 00      MOV     X,$00+Y
28F8 0A 80 1E   OR1     C,$1E80.#0
28FB 84 F9      ADC     A,$F9
28FD 00         NOP
28FE 1E A3 7F   CMP     X,$7FA3
2901 8C ED A0   DEC     $A0ED
2904 46         EOR     A,(X)
2905 80         SETC
2906 F9 00      MOV     X,$00+Y
2908 46         EOR     A,(X)
2909 B9         SBC     (X),(Y)
290A ED         NOTC
290B 64 8C      CMP     A,$8C
290D F9 00      MOV     X,$00+Y
290F 46         EOR     A,(X)
2910 B9         SBC     (X),(Y)
2911 ED         NOTC
2912 46         EOR     A,(X)
2913 98 F9 00   ADC     $00,#$F9
2916 46         EOR     A,(X)
2917 B9         SBC     (X),(Y)
2918 ED         NOTC
2919 32 A4      CLR1    $A4.#1
291B F9 00      MOV     X,$00+Y
291D 46         EOR     A,(X)
291E B9         SBC     (X),(Y)
291F 00         NOP
2920 E1         TCALL   $E
2921 14 E2      OR      A,$E2+X
2923 FF         STOP
2924 00         NOP
2925 E0         CLRV
2926 01         TCALL   $0
2927 E7 7B      MOV     A,[$7B+X]
2929 ED         NOTC
292A FF         STOP
292B E3 00 FF   BBS     $00,#7,$292D
292E FF         STOP
292F FB FF      MOV     Y,$FF+X
2931 00         NOP
2932 7F         RETI
2933 E5 1E 6F   MOV     A,$6F1E
2936 A3 F9 00   BBS     $F9,#5,$2939
2939 1E 80 E6   CMP     X,$E680
293C 0F         BRK
293D EF         SLEEP
293E 00         NOP
293F ED         NOTC
2940 32 1B      CLR1    $1B.#1
2942 A4 E1      SBC     A,$E1
2944 14 E2      OR      A,$E2+X
2946 FF         STOP
2947 00         NOP
2948 E0         CLRV
2949 06         OR      A,(X)
294A E7 7B      MOV     A,[$7B+X]
294C ED         NOTC
294D DC         DEC     Y
294E E3 00 FF   BBS     $00,#7,$2950
2951 FF         STOP
2952 FB FF      MOV     Y,$FF+X
2954 00         NOP
2955 7F         RETI
2956 EE         POP     Y
2957 FA 46 E5   MOV     $E5,$46
295A 03 6F 8C   BBS     $6F,#0,$28E9
295D 93 95 97   BBC     $95,#4,$28F7
2960 95 E6 1F   ADC     A,$1FE6+X
2963 00         NOP
2964 0A 0C C9   OR1     C,$090C.#6
2967 E1         TCALL   $E
2968 14 E2      OR      A,$E2+X
296A FF         STOP
296B 00         NOP
296C E0         CLRV
296D 06         OR      A,(X)
296E E7 7B      MOV     A,[$7B+X]
2970 ED         NOTC
2971 FF         STOP
2972 E3 00 FF   BBS     $00,#7,$2974
2975 FF         STOP
2976 FB FF      MOV     Y,$FF+X
2978 00         NOP
2979 7F         RETI
297A F4 46      MOV     A,$46+X
297C EE         POP     Y
297D FA 46 32   MOV     $32,$46
2980 C9 E5 03   MOV     $03E5,X
2983 6F         RET
2984 8C 93 95   DEC     $9593
2987 97 95      ADC     A,[$95]+Y
2989 E6         MOV     A,(X)
298A 1C         ASL     A
298B 00         NOP
298C 0A 07 C9   OR1     C,$0907.#6
298F E1         TCALL   $E
2990 14 E2      OR      A,$E2+X
2992 FF         STOP
2993 00         NOP
2994 E0         CLRV
2995 0D         PUSH    PSW
2996 E7 7B      MOV     A,[$7B+X]
2998 ED         NOTC
2999 96 E5 7F   ADC     A,$7FE5+Y
299C 0F         BRK
299D 82 E6      SET1    $E6.#4
299F 03 EC 00   BBS     $EC,#0,$29A2
29A2 60         CLRC
29A3 82 E1      SET1    $E1.#4
29A5 14 E2      OR      A,$E2+X
29A7 FF         STOP
29A8 00         NOP
29A9 E0         CLRV
29AA 0D         PUSH    PSW
29AB E7 7B      MOV     A,[$7B+X]
29AD ED         NOTC
29AE 96 E5 7F   ADC     A,$7FE5+Y
29B1 0F         BRK
29B2 80         SETC
29B3 E6         MOV     A,(X)
29B4 03 EC 00   BBS     $EC,#0,$29B7
29B7 60         CLRC
29B8 80         SETC
29B9 E1         TCALL   $E
29BA 14 E2      OR      A,$E2+X
29BC FF         STOP
29BD 00         NOP
29BE E0         CLRV
29BF 0D         PUSH    PSW
29C0 E7 7B      MOV     A,[$7B+X]
29C2 ED         NOTC
29C3 96 E5 7F   ADC     A,$7FE5+Y
29C6 0F         BRK
29C7 87 E6      ADC     A,[$E6+X]
29C9 03 EC 00   BBS     $EC,#0,$29CC
29CC 60         CLRC
29CD 87 E1      ADC     A,[$E1+X]
29CF 14 E2      OR      A,$E2+X
29D1 FF         STOP
29D2 00         NOP
29D3 E0         CLRV
29D4 00         NOP
29D5 E7 7B      MOV     A,[$7B+X]
29D7 ED         NOTC
29D8 FF         STOP
29D9 E3 00 FF   BBS     $00,#7,$29DB
29DC FF         STOP
29DD FB FF      MOV     Y,$FF+X
29DF 00         NOP
29E0 7F         RETI
29E1 EE         POP     Y
29E2 FA 3C E5   MOV     $E5,$3C
29E5 03 6F 8C   BBS     $6F,#0,$2974
29E8 93 95 97   BBC     $95,#4,$2982
29EB 95 E6 1F   ADC     A,$1FE6+X
29EE 00         NOP
29EF 0A 0C C9   OR1     C,$090C.#6
29F2 F6 29 00   MOV     A,$0029+Y
29F5 00         NOP
29F6 06         OR      A,(X)
29F7 2A 31 2A   OR1     C,/$0A31.#1
29FA 52 2A      CLR1    $2A.#2
29FC 69 2A 80   CMP     $80,$2A
29FF 2A 9F 2A   OR1     C,/$0A9F.#1
2A02 C0         DI
2A03 2A D7 2A   OR1     C,/$0AD7.#1
2A06 FA 14 E1   MOV     $E1,$14
2A09 0F         BRK
2A0A E2 FF      SET1    $FF.#7
2A0C 00         NOP
2A0D E0         CLRV
2A0E 0D         PUSH    PSW
2A0F E7 7B      MOV     A,[$7B+X]
2A11 ED         NOTC
2A12 C8 FB      CMP     X,#$FB
2A14 8C 00 7F   DEC     $7F00
2A17 64 0F      CMP     A,$0F
2A19 87 F9      ADC     A,[$F9+X]
2A1B 00         NOP
2A1C 64 C3      CMP     A,$C3
2A1E ED         NOTC
2A1F 46         EOR     A,(X)
2A20 E5 87 F9   MOV     A,$F987
2A23 00         NOP
2A24 64 C3      CMP     A,$C3
2A26 E6         MOV     A,(X)
2A27 02 D8      SET1    $D8.#0
2A29 00         NOP
2A2A 64 68      CMP     A,$68
2A2C C3 C9 C9   BBS     $C9,#6,$29F8
2A2F C9 00 E1   MOV     $E100,X
2A32 0F         BRK
2A33 E2 FF      SET1    $FF.#7
2A35 00         NOP
2A36 E0         CLRV
2A37 06         OR      A,(X)
2A38 E7 7B      MOV     A,[$7B+X]
2A3A ED         NOTC
2A3B C8 E3      CMP     X,#$E3
2A3D 00         NOP
2A3E FF         STOP
2A3F FF         STOP
2A40 FB FF      MOV     Y,$FF+X
2A42 00         NOP
2A43 7F         RETI
2A44 E5 03 6F   MOV     A,$6F03
2A47 80         SETC
2A48 87 89      ADC     A,[$89+X]
2A4A 8B 89      DEC     $89
2A4C E6         MOV     A,(X)
2A4D 2E FB 06   CBNE    $FB,$2A56
2A50 0A C9 E1   OR1     C,$01C9.#7
2A53 0F         BRK
2A54 E2 FF      SET1    $FF.#7
2A56 00         NOP
2A57 E0         CLRV
2A58 0D         PUSH    PSW
2A59 E7 7B      MOV     A,[$7B+X]
2A5B ED         NOTC
2A5C E6         MOV     A,(X)
2A5D FB 8C      MOV     Y,$8C+X
2A5F 00         NOP
2A60 7F         RETI
2A61 E5 64 0F   MOV     A,$0F64
2A64 87 E6      ADC     A,[$E6+X]
2A66 07 DC      OR      A,[$DC+X]
2A68 00         NOP
2A69 E1         TCALL   $E
2A6A 0F         BRK
2A6B E2 FF      SET1    $FF.#7
2A6D 00         NOP
2A6E E0         CLRV
2A6F 01         TCALL   $0
2A70 E7 7B      MOV     A,[$7B+X]
2A72 ED         NOTC
2A73 64 FB      CMP     A,$FB
2A75 3C         ROL     A
2A76 00         NOP
2A77 7F         RETI
2A78 E5 64 0F   MOV     A,$0F64
2A7B C4 E6      MOV     $E6,A
2A7D 07 EF      OR      A,[$EF+X]
2A7F 00         NOP
2A80 E1         TCALL   $E
2A81 0F         BRK
2A82 E2 FF      SET1    $FF.#7
2A84 00         NOP
2A85 E0         CLRV
2A86 06         OR      A,(X)
2A87 E7 7B      MOV     A,[$7B+X]
2A89 ED         NOTC
2A8A FF         STOP
2A8B E3 00 FF   BBS     $00,#7,$2A8D
2A8E FF         STOP
2A8F FB FF      MOV     Y,$FF+X
2A91 00         NOP
2A92 7F         RETI
2A93 E5 23 6F   MOV     A,$6F23
2A96 82 F9      SET1    $F9.#4
2A98 00         NOP
2A99 46         EOR     A,(X)
2A9A 80         SETC
2A9B E6         MOV     A,(X)
2A9C 14 F4      OR      A,$F4+X
2A9E 00         NOP
2A9F E1         TCALL   $E
2AA0 0F         BRK
2AA1 E2 FF      SET1    $FF.#7
2AA3 00         NOP
2AA4 E0         CLRV
2AA5 04 E7      OR      A,$E7
2AA7 7B ED      ROR     $ED+X
2AA9 C8 E3      CMP     X,#$E3
2AAB 00         NOP
2AAC FF         STOP
2AAD FF         STOP
2AAE FB FF      MOV     Y,$FF+X
2AB0 00         NOP
2AB1 7F         RETI
2AB2 0A C9 E5   OR1     C,$05C9.#7
2AB5 03 6F 8C   BBS     $6F,#0,$2A44
2AB8 93 95 97   BBC     $95,#4,$2A52
2ABB 95 E6 2E   ADC     A,$2EE6+X
2ABE FB 05      MOV     Y,$05+X
2AC0 E1         TCALL   $E
2AC1 0F         BRK
2AC2 E2 FF      SET1    $FF.#7
2AC4 00         NOP
2AC5 E0         CLRV
2AC6 0D         PUSH    PSW
2AC7 E7 7B      MOV     A,[$7B+X]
2AC9 ED         NOTC
2ACA E6         MOV     A,(X)
2ACB FB 8C      MOV     Y,$8C+X
2ACD 00         NOP
2ACE 7F         RETI
2ACF E5 64 0F   MOV     A,$0F64
2AD2 80         SETC
2AD3 E6         MOV     A,(X)
2AD4 07 DC      OR      A,[$DC+X]
2AD6 00         NOP
2AD7 E1         TCALL   $E
2AD8 0F         BRK
2AD9 E2 FF      SET1    $FF.#7
2ADB 00         NOP
2ADC E0         CLRV
2ADD 0D         PUSH    PSW
2ADE E7 7B      MOV     A,[$7B+X]
2AE0 ED         NOTC
2AE1 E6         MOV     A,(X)
2AE2 FB 8C      MOV     Y,$8C+X
2AE4 00         NOP
2AE5 7F         RETI
2AE6 E5 64 0F   MOV     A,$0F64
2AE9 87 E6      ADC     A,[$E6+X]
2AEB 07 DC      OR      A,[$DC+X]
2AED 00         NOP
2AEE F2 2A      CLR1    $2A.#7
2AF0 00         NOP
2AF1 00         NOP
2AF2 02 2B      SET1    $2B.#0
2AF4 4C 2B 72   LSR     $722B
2AF7 2B 99      ROL     $99
2AF9 2B B7      ROL     $B7
2AFB 2B D5      ROL     $D5
2AFD 2B 00      ROL     $00
2AFF 00         NOP
2B00 00         NOP
2B01 00         NOP
2B02 FA 14 E1   MOV     $E1,$14
2B05 14 E2      OR      A,$E2+X
2B07 FF         STOP
2B08 00         NOP
2B09 E0         CLRV
2B0A 0D         PUSH    PSW
2B0B E7 7B      MOV     A,[$7B+X]
2B0D ED         NOTC
2B0E E6         MOV     A,(X)
2B0F E3 00 FF   BBS     $00,#7,$2B11
2B12 FF         STOP
2B13 1E 0F 93   CMP     X,$930F
2B16 F9 00      MOV     X,$00+Y
2B18 1E 80 0A   CMP     X,$0A80
2B1B 8E         POP     PSW
2B1C F9 00      MOV     X,$00+Y
2B1E 0A 80 1E   OR1     C,$1E80.#0
2B21 84 F9      ADC     A,$F9
2B23 00         NOP
2B24 1E A3 7F   CMP     X,$7FA3
2B27 8C ED 96   DEC     $96ED
2B2A EE         POP     Y
2B2B 46         EOR     A,(X)
2B2C 5A 46      CMPW    YA,$46
2B2E 80         SETC
2B2F F9 00      MOV     X,$00+Y
2B31 46         EOR     A,(X)
2B32 B9         SBC     (X),(Y)
2B33 EE         POP     Y
2B34 46         EOR     A,(X)
2B35 3C         ROL     A
2B36 8C F9 00   DEC     $00F9
2B39 46         EOR     A,(X)
2B3A B9         SBC     (X),(Y)
2B3B EE         POP     Y
2B3C 46         EOR     A,(X)
2B3D 28 98      AND     A,#$98
2B3F F9 00      MOV     X,$00+Y
2B41 46         EOR     A,(X)
2B42 B9         SBC     (X),(Y)
2B43 EE         POP     Y
2B44 46         EOR     A,(X)
2B45 00         NOP
2B46 A4 F9      SBC     A,$F9
2B48 00         NOP
2B49 46         EOR     A,(X)
2B4A B9         SBC     (X),(Y)
2B4B 00         NOP
2B4C E1         TCALL   $E
2B4D 14 E2      OR      A,$E2+X
2B4F FF         STOP
2B50 00         NOP
2B51 E0         CLRV
2B52 01         TCALL   $0
2B53 E7 7B      MOV     A,[$7B+X]
2B55 ED         NOTC
2B56 FF         STOP
2B57 E3 00 FF   BBS     $00,#7,$2B59
2B5A FF         STOP
2B5B FB FF      MOV     Y,$FF+X
2B5D 00         NOP
2B5E 7F         RETI
2B5F E5 1E 6F   MOV     A,$6F1E
2B62 A3 F9 00   BBS     $F9,#5,$2B65
2B65 1E 80 E6   CMP     X,$E680
2B68 0F         BRK
2B69 EF         SLEEP
2B6A 00         NOP
2B6B ED         NOTC
2B6C 32 EE      CLR1    $EE.#1
2B6E 1B 00      ASL     $00+X
2B70 1B A4      ASL     $A4+X
2B72 E1         TCALL   $E
2B73 14 E2      OR      A,$E2+X
2B75 FF         STOP
2B76 00         NOP
2B77 E0         CLRV
2B78 06         OR      A,(X)
2B79 E7 7B      MOV     A,[$7B+X]
2B7B ED         NOTC
2B7C DC         DEC     Y
2B7D E3 00 FF   BBS     $00,#7,$2B7F
2B80 FF         STOP
2B81 FB FF      MOV     Y,$FF+X
2B83 00         NOP
2B84 7F         RETI
2B85 EE         POP     Y
2B86 FF         STOP
2B87 0A E5 03   OR1     C,$03E5.#0
2B8A 6F         RET
2B8B 8C 93 95   DEC     $9593
2B8E 97 95      ADC     A,[$95]+Y
2B90 E6         MOV     A,(X)
2B91 1F 00 0A   JMP     [$0A00+X]
2B94 EE         POP     Y
2B95 0C 00 0C   ASL     $0C00
2B98 C9 E1 14   MOV     $14E1,X
2B9B E2 FF      SET1    $FF.#7
2B9D 00         NOP
2B9E E0         CLRV
2B9F 0D         PUSH    PSW
2BA0 E7 7B      MOV     A,[$7B+X]
2BA2 ED         NOTC
2BA3 C8 EE      CMP     X,#$EE
2BA5 7F         RETI
2BA6 96 7F 0F   ADC     A,$0F7F+Y
2BA9 82 EE      SET1    $EE.#4
2BAB 7F         RETI
2BAC 64 82      CMP     A,$82
2BAE EE         POP     Y
2BAF 7F         RETI
2BB0 32 82      CLR1    $82.#1
2BB2 EE         POP     Y
2BB3 60         CLRC
2BB4 00         NOP
2BB5 60         CLRC
2BB6 82 E1      SET1    $E1.#4
2BB8 14 E2      OR      A,$E2+X
2BBA FF         STOP
2BBB 00         NOP
2BBC E0         CLRV
2BBD 0D         PUSH    PSW
2BBE E7 7B      MOV     A,[$7B+X]
2BC0 ED         NOTC
2BC1 C8 EE      CMP     X,#$EE
2BC3 7F         RETI
2BC4 96 7F 0F   ADC     A,$0F7F+Y
2BC7 80         SETC
2BC8 EE         POP     Y
2BC9 7F         RETI
2BCA 64 80      CMP     A,$80
2BCC EE         POP     Y
2BCD 7F         RETI
2BCE 32 80      CLR1    $80.#1
2BD0 EE         POP     Y
2BD1 60         CLRC
2BD2 00         NOP
2BD3 60         CLRC
2BD4 80         SETC
2BD5 E1         TCALL   $E
2BD6 14 E2      OR      A,$E2+X
2BD8 FF         STOP
2BD9 00         NOP
2BDA E0         CLRV
2BDB 00         NOP
2BDC E7 7B      MOV     A,[$7B+X]
2BDE ED         NOTC
2BDF FF         STOP
2BE0 E3 00 FF   BBS     $00,#7,$2BE2
2BE3 FF         STOP
2BE4 FB FF      MOV     Y,$FF+X
2BE6 00         NOP
2BE7 7F         RETI
2BE8 EE         POP     Y
2BE9 FF         STOP
2BEA 00         NOP
2BEB E5 03 6F   MOV     A,$6F03
2BEE 8C 93 95   DEC     $9593
2BF1 97 95      ADC     A,[$95]+Y
2BF3 E6         MOV     A,(X)
2BF4 1F 00 0A   JMP     [$0A00+X]
2BF7 0C C9 FD   ASL     $FDC9
2BFA 2B 00      ROL     $00
2BFC 00         NOP
2BFD 0D         PUSH    PSW
2BFE 2C 1D 2C   ROL     $2C1D
2C01 2A 2C 37   OR1     C,/$172C.#1
2C04 2C 44 2C   ROL     $2C44
2C07 51         TCALL   $5
2C08 2C 00 00   ROL     $0000
2C0B 00         NOP
2C0C 00         NOP
2C0D FA 14 E0   MOV     $E0,$14
2C10 0D         PUSH    PSW
2C11 E7 06      MOV     A,[$06+X]
2C13 ED         NOTC
2C14 64 FB      CMP     A,$FB
2C16 28 D2      AND     A,#$D2
2C18 00         NOP
2C19 7F         RETI
2C1A 0F         BRK
2C1B 82 00      SET1    $00.#4
2C1D E0         CLRV
2C1E 0D         PUSH    PSW
2C1F E7 06      MOV     A,[$06+X]
2C21 ED         NOTC
2C22 64 FB      CMP     A,$FB
2C24 28 D2      AND     A,#$D2
2C26 00         NOP
2C27 7F         RETI
2C28 0F         BRK
2C29 80         SETC
2C2A E0         CLRV
2C2B 0D         PUSH    PSW
2C2C E7 06      MOV     A,[$06+X]
2C2E ED         NOTC
2C2F 64 FB      CMP     A,$FB
2C31 28 D2      AND     A,#$D2
2C33 00         NOP
2C34 7F         RETI
2C35 0F         BRK
2C36 87 E0      ADC     A,[$E0+X]
2C38 13 E7 06   BBC     $E7,#0,$2C41
2C3B ED         NOTC
2C3C 1E FB 28   CMP     X,$28FB
2C3F D2 00      CLR1    $00.#6
2C41 7F         RETI
2C42 0F         BRK
2C43 B7 E0      SBC     A,[$E0]+Y
2C45 04 E7      OR      A,$E7
2C47 06         OR      A,(X)
2C48 ED         NOTC
2C49 50 FB      BVC     $2C46
2C4B 28 D2      AND     A,#$D2
2C4D 00         NOP
2C4E 7F         RETI
2C4F 0F         BRK
2C50 C3 E0 04   BBS     $E0,#6,$2C57
2C53 E7 06      MOV     A,[$06+X]
2C55 ED         NOTC
2C56 78 FB 28   CMP     $28,#$FB
2C59 D2 00      CLR1    $00.#6
2C5B 7F         RETI
2C5C 0F         BRK
2C5D 98 62 2C   ADC     $2C,#$62
2C60 00         NOP
2C61 00         NOP
2C62 72 2C      CLR1    $2C.#3
2C64 BC         INC     A
2C65 2C E2 2C   ROL     $2CE2
2C68 09 2D 31   OR      $31,$2D
2C6B 2D         PUSH    A
2C6C 4F 2D      PCALL   $2D
2C6E 6D         PUSH    Y
2C6F 2D         PUSH    A
2C70 8B 2D      DEC     $2D
2C72 FA 14 E1   MOV     $E1,$14
2C75 14 E2      OR      A,$E2+X
2C77 FF         STOP
2C78 00         NOP
2C79 E0         CLRV
2C7A 0D         PUSH    PSW
2C7B E7 7B      MOV     A,[$7B+X]
2C7D ED         NOTC
2C7E E6         MOV     A,(X)
2C7F E3 00 FF   BBS     $00,#7,$2C81
2C82 FF         STOP
2C83 1E 0F 93   CMP     X,$930F
2C86 F9 00      MOV     X,$00+Y
2C88 1E 80 0A   CMP     X,$0A80
2C8B 8E         POP     PSW
2C8C F9 00      MOV     X,$00+Y
2C8E 0A 80 1E   OR1     C,$1E80.#0
2C91 84 F9      ADC     A,$F9
2C93 00         NOP
2C94 1E A3 7F   CMP     X,$7FA3
2C97 8C ED 96   DEC     $96ED
2C9A EE         POP     Y
2C9B 46         EOR     A,(X)
2C9C 5A 46      CMPW    YA,$46
2C9E 80         SETC
2C9F F9 00      MOV     X,$00+Y
2CA1 46         EOR     A,(X)
2CA2 B9         SBC     (X),(Y)
2CA3 EE         POP     Y
2CA4 46         EOR     A,(X)
2CA5 3C         ROL     A
2CA6 8C F9 00   DEC     $00F9
2CA9 46         EOR     A,(X)
2CAA B9         SBC     (X),(Y)
2CAB EE         POP     Y
2CAC 46         EOR     A,(X)
2CAD 28 98      AND     A,#$98
2CAF F9 00      MOV     X,$00+Y
2CB1 46         EOR     A,(X)
2CB2 B9         SBC     (X),(Y)
2CB3 EE         POP     Y
2CB4 46         EOR     A,(X)
2CB5 00         NOP
2CB6 A4 F9      SBC     A,$F9
2CB8 00         NOP
2CB9 46         EOR     A,(X)
2CBA B9         SBC     (X),(Y)
2CBB 00         NOP
2CBC E1         TCALL   $E
2CBD 14 E2      OR      A,$E2+X
2CBF FF         STOP
2CC0 00         NOP
2CC1 E0         CLRV
2CC2 01         TCALL   $0
2CC3 E7 7B      MOV     A,[$7B+X]
2CC5 ED         NOTC
2CC6 FF         STOP
2CC7 E3 00 FF   BBS     $00,#7,$2CC9
2CCA FF         STOP
2CCB FB FF      MOV     Y,$FF+X
2CCD 00         NOP
2CCE 7F         RETI
2CCF E5 1E 6F   MOV     A,$6F1E
2CD2 A3 F9 00   BBS     $F9,#5,$2CD5
2CD5 1E 80 E6   CMP     X,$E680
2CD8 0F         BRK
2CD9 EF         SLEEP
2CDA 00         NOP
2CDB ED         NOTC
2CDC 32 EE      CLR1    $EE.#1
2CDE 1B 00      ASL     $00+X
2CE0 1B A4      ASL     $A4+X
2CE2 E1         TCALL   $E
2CE3 14 E2      OR      A,$E2+X
2CE5 FF         STOP
2CE6 00         NOP
2CE7 E0         CLRV
2CE8 06         OR      A,(X)
2CE9 E7 7B      MOV     A,[$7B+X]
2CEB ED         NOTC
2CEC DC         DEC     Y
2CED E3 00 FF   BBS     $00,#7,$2CEF
2CF0 FF         STOP
2CF1 FB FF      MOV     Y,$FF+X
2CF3 00         NOP
2CF4 7F         RETI
2CF5 EE         POP     Y
2CF6 FF         STOP
2CF7 0A E5 03   OR1     C,$03E5.#0
2CFA 6F         RET
2CFB 8C 93 95   DEC     $9593
2CFE 97 95      ADC     A,[$95]+Y
2D00 E6         MOV     A,(X)
2D01 1F 00 0A   JMP     [$0A00+X]
2D04 EE         POP     Y
2D05 0C 00 0C   ASL     $0C00
2D08 C9 E1 14   MOV     $14E1,X
2D0B E2 FF      SET1    $FF.#7
2D0D 00         NOP
2D0E E0         CLRV
2D0F 06         OR      A,(X)
2D10 E7 7B      MOV     A,[$7B+X]
2D12 ED         NOTC
2D13 FF         STOP
2D14 E3 00 FF   BBS     $00,#7,$2D16
2D17 FF         STOP
2D18 FB FF      MOV     Y,$FF+X
2D1A 00         NOP
2D1B 7F         RETI
2D1C F4 46      MOV     A,$46+X
2D1E EE         POP     Y
2D1F FA 0A 32   MOV     $32,$0A
2D22 C9 E5 03   MOV     $03E5,X
2D25 6F         RET
2D26 8C 93 95   DEC     $9593
2D29 97 95      ADC     A,[$95]+Y
2D2B E6         MOV     A,(X)
2D2C 1C         ASL     A
2D2D 00         NOP
2D2E 0A 07 C9   OR1     C,$0907.#6
2D31 E1         TCALL   $E
2D32 14 E2      OR      A,$E2+X
2D34 FF         STOP
2D35 00         NOP
2D36 E0         CLRV
2D37 0D         PUSH    PSW
2D38 E7 7B      MOV     A,[$7B+X]
2D3A ED         NOTC
2D3B C8 EE      CMP     X,#$EE
2D3D 7F         RETI
2D3E 96 7F 0F   ADC     A,$0F7F+Y
2D41 82 EE      SET1    $EE.#4
2D43 7F         RETI
2D44 64 82      CMP     A,$82
2D46 EE         POP     Y
2D47 7F         RETI
2D48 32 82      CLR1    $82.#1
2D4A EE         POP     Y
2D4B 60         CLRC
2D4C 00         NOP
2D4D 60         CLRC
2D4E 82 E1      SET1    $E1.#4
2D50 14 E2      OR      A,$E2+X
2D52 FF         STOP
2D53 00         NOP
2D54 E0         CLRV
2D55 0D         PUSH    PSW
2D56 E7 7B      MOV     A,[$7B+X]
2D58 ED         NOTC
2D59 C8 EE      CMP     X,#$EE
2D5B 7F         RETI
2D5C 96 7F 0F   ADC     A,$0F7F+Y
2D5F 80         SETC
2D60 EE         POP     Y
2D61 7F         RETI
2D62 64 80      CMP     A,$80
2D64 EE         POP     Y
2D65 7F         RETI
2D66 32 80      CLR1    $80.#1
2D68 EE         POP     Y
2D69 60         CLRC
2D6A 00         NOP
2D6B 60         CLRC
2D6C 80         SETC
2D6D E1         TCALL   $E
2D6E 14 E2      OR      A,$E2+X
2D70 FF         STOP
2D71 00         NOP
2D72 E0         CLRV
2D73 0D         PUSH    PSW
2D74 E7 7B      MOV     A,[$7B+X]
2D76 ED         NOTC
2D77 C8 EE      CMP     X,#$EE
2D79 7F         RETI
2D7A 96 7F 0F   ADC     A,$0F7F+Y
2D7D 87 EE      ADC     A,[$EE+X]
2D7F 7F         RETI
2D80 64 87      CMP     A,$87
2D82 EE         POP     Y
2D83 7F         RETI
2D84 32 87      CLR1    $87.#1
2D86 EE         POP     Y
2D87 60         CLRC
2D88 00         NOP
2D89 60         CLRC
2D8A 87 E1      ADC     A,[$E1+X]
2D8C 14 E2      OR      A,$E2+X
2D8E FF         STOP
2D8F 00         NOP
2D90 E0         CLRV
2D91 00         NOP
2D92 E7 7B      MOV     A,[$7B+X]
2D94 ED         NOTC
2D95 FF         STOP
2D96 E3 00 FF   BBS     $00,#7,$2D98
2D99 FF         STOP
2D9A FB FF      MOV     Y,$FF+X
2D9C 00         NOP
2D9D 7F         RETI
2D9E EE         POP     Y
2D9F FF         STOP
2DA0 00         NOP
2DA1 E5 03 6F   MOV     A,$6F03
2DA4 8C 93 95   DEC     $9593
2DA7 97 95      ADC     A,[$95]+Y
2DA9 E6         MOV     A,(X)
2DAA 1F 00 0A   JMP     [$0A00+X]
2DAD 0C C9 B3   ASL     $B3C9
2DB0 2D         PUSH    A
2DB1 00         NOP
2DB2 00         NOP
2DB3 C3 2D F8   BBS     $2D,#6,$2DAE
2DB6 2D         PUSH    A
2DB7 27 2E      AND     A,[$2E+X]
2DB9 4F 2E      PCALL   $2E
2DBB 77 2E      CMP     A,[$2E]+Y
2DBD A4 2E      SBC     A,$2E
2DBF CC 2E F9   MOV     $F92E,Y
2DC2 2E FA 14   CBNE    $FA,$2DD9
2DC5 E1         TCALL   $E
2DC6 14 E2      OR      A,$E2+X
2DC8 64 0F      CMP     A,$0F
2DCA E0         CLRV
2DCB 0D         PUSH    PSW
2DCC E7 7B      MOV     A,[$7B+X]
2DCE ED         NOTC
2DCF 00         NOP
2DD0 EE         POP     Y
2DD1 AF         MOV     (X)+,A
2DD2 8C 64 0F   DEC     $0F64
2DD5 80         SETC
2DD6 4B 80      LSR     $80
2DD8 ED         NOTC
2DD9 AA FB 8C   MOV1    C,$0CFB.#4
2DDC 00         NOP
2DDD 7F         RETI
2DDE 28 87      AND     A,#$87
2DE0 F9 00      MOV     X,$00+Y
2DE2 28 C3      AND     A,#$C3
2DE4 ED         NOTC
2DE5 3C         ROL     A
2DE6 EE         POP     Y
2DE7 F0 00      BEQ     $2DE9
2DE9 E2 32      SET1    $32.#7
2DEB 00         NOP
2DEC E5 50 87   MOV     A,$8750
2DEF F9 00      MOV     X,$00+Y
2DF1 50 C3      BVC     $2DB6
2DF3 E6         MOV     A,(X)
2DF4 03 00 00   BBS     $00,#0,$2DF7
2DF7 00         NOP
2DF8 E1         TCALL   $E
2DF9 14 E2      OR      A,$E2+X
2DFB 64 0F      CMP     A,$0F
2DFD E0         CLRV
2DFE 0D         PUSH    PSW
2DFF E7 7B      MOV     A,[$7B+X]
2E01 ED         NOTC
2E02 00         NOP
2E03 EE         POP     Y
2E04 AF         MOV     (X)+,A
2E05 8C 64 6F   DEC     $6F64
2E08 82 4B      SET1    $4B.#4
2E0A 82 E0      SET1    $E0.#4
2E0C 06         OR      A,(X)
2E0D ED         NOTC
2E0E 64 FB      CMP     A,$FB
2E10 FF         STOP
2E11 00         NOP
2E12 7F         RETI
2E13 EE         POP     Y
2E14 FF         STOP
2E15 00         NOP
2E16 E2 32      SET1    $32.#7
2E18 00         NOP
2E19 E5 03 0F   MOV     A,$0F03
2E1C 80         SETC
2E1D 87 89      ADC     A,[$89+X]
2E1F 8B 89      DEC     $89
2E21 E6         MOV     A,(X)
2E22 12 00      CLR1    $00.#0
2E24 00         NOP
2E25 0A C9 E1   OR1     C,$01C9.#7
2E28 14 E2      OR      A,$E2+X
2E2A 64 0F      CMP     A,$0F
2E2C E0         CLRV
2E2D 0D         PUSH    PSW
2E2E E7 7B      MOV     A,[$7B+X]
2E30 ED         NOTC
2E31 00         NOP
2E32 EE         POP     Y
2E33 AF         MOV     (X)+,A
2E34 8C 64 0F   DEC     $0F64
2E37 84 4B      ADC     A,$4B
2E39 84 E2      ADC     A,$E2
2E3B 32 00      CLR1    $00.#1
2E3D ED         NOTC
2E3E E6         MOV     A,(X)
2E3F EE         POP     Y
2E40 FF         STOP
2E41 00         NOP
2E42 FB 96      MOV     Y,$96+X
2E44 26         AND     A,(X)
2E45 00         NOP
2E46 E5 64 80   MOV     A,$8064
2E49 E6         MOV     A,(X)
2E4A 02 00      SET1    $00.#0
2E4C 00         NOP
2E4D 50 80      BVC     $2DCF
2E4F E1         TCALL   $E
2E50 14 E2      OR      A,$E2+X
2E52 64 0F      CMP     A,$0F
2E54 E0         CLRV
2E55 0D         PUSH    PSW
2E56 E7 7B      MOV     A,[$7B+X]
2E58 ED         NOTC
2E59 00         NOP
2E5A EE         POP     Y
2E5B AF         MOV     (X)+,A
2E5C 8C 64 0F   DEC     $0F64
2E5F 85 4B 85   ADC     A,$854B
2E62 E2 32      SET1    $32.#7
2E64 00         NOP
2E65 ED         NOTC
2E66 E6         MOV     A,(X)
2E67 EE         POP     Y
2E68 FF         STOP
2E69 00         NOP
2E6A FB 96      MOV     Y,$96+X
2E6C 26         AND     A,(X)
2E6D 00         NOP
2E6E E5 64 87   MOV     A,$8764
2E71 E6         MOV     A,(X)
2E72 02 00      SET1    $00.#0
2E74 00         NOP
2E75 50 87      BVC     $2DFE
2E77 E1         TCALL   $E
2E78 14 E2      OR      A,$E2+X
2E7A 64 0F      CMP     A,$0F
2E7C E0         CLRV
2E7D 0D         PUSH    PSW
2E7E E7 7B      MOV     A,[$7B+X]
2E80 ED         NOTC
2E81 00         NOP
2E82 EE         POP     Y
2E83 AF         MOV     (X)+,A
2E84 64 64      CMP     A,$64
2E86 0F         BRK
2E87 87 4B      ADC     A,[$4B+X]
2E89 6F         RET
2E8A 87 E2      ADC     A,[$E2+X]
2E8C 32 00      CLR1    $00.#1
2E8E E0         CLRV
2E8F 06         OR      A,(X)
2E90 ED         NOTC
2E91 FF         STOP
2E92 EE         POP     Y
2E93 FF         STOP
2E94 00         NOP
2E95 E3 00 FF   BBS     $00,#7,$2E97
2E98 FF         STOP
2E99 E5 23 82   MOV     A,$8223
2E9C F9 00      MOV     X,$00+Y
2E9E 23 80 E6   BBS     $80,#1,$2E87
2EA1 08 00      OR      A,#$00
2EA3 00         NOP
2EA4 E1         TCALL   $E
2EA5 14 E2      OR      A,$E2+X
2EA7 64 0F      CMP     A,$0F
2EA9 E0         CLRV
2EAA 0D         PUSH    PSW
2EAB E7 7B      MOV     A,[$7B+X]
2EAD ED         NOTC
2EAE 00         NOP
2EAF EE         POP     Y
2EB0 AF         MOV     (X)+,A
2EB1 50 64      BVC     $2F17
2EB3 0F         BRK
2EB4 89 4B 89   ADC     $89,$4B
2EB7 E2 32      SET1    $32.#7
2EB9 00         NOP
2EBA ED         NOTC
2EBB C8 EE      CMP     X,#$EE
2EBD FF         STOP
2EBE 00         NOP
2EBF FB 8C      MOV     Y,$8C+X
2EC1 00         NOP
2EC2 7F         RETI
2EC3 E5 64 84   MOV     A,$8464
2EC6 E6         MOV     A,(X)
2EC7 02 DC      SET1    $DC.#0
2EC9 00         NOP
2ECA 50 84      BVC     $2E50
2ECC E1         TCALL   $E
2ECD 14 E2      OR      A,$E2+X
2ECF 64 0F      CMP     A,$0F
2ED1 E0         CLRV
2ED2 0D         PUSH    PSW
2ED3 E7 7B      MOV     A,[$7B+X]
2ED5 ED         NOTC
2ED6 00         NOP
2ED7 EE         POP     Y
2ED8 AF         MOV     (X)+,A
2ED9 50 64      BVC     $2F3F
2EDB 0F         BRK
2EDC 8B 4B      DEC     $4B
2EDE 6F         RET
2EDF 8B E2      DEC     $E2
2EE1 32 00      CLR1    $00.#1
2EE3 E0         CLRV
2EE4 09 ED C8   OR      $C8,$ED
2EE7 EE         POP     Y
2EE8 FF         STOP
2EE9 00         NOP
2EEA E3 00 FF   BBS     $00,#7,$2EEC
2EED FF         STOP
2EEE E5 23 93   MOV     A,$9323
2EF1 F9 00      MOV     X,$00+Y
2EF3 23 80 E6   BBS     $80,#1,$2EDC
2EF6 08 00      OR      A,#$00
2EF8 00         NOP
2EF9 E1         TCALL   $E
2EFA 14 E2      OR      A,$E2+X
2EFC 64 0F      CMP     A,$0F
2EFE E0         CLRV
2EFF 0D         PUSH    PSW
2F00 E7 7B      MOV     A,[$7B+X]
2F02 ED         NOTC
2F03 00         NOP
2F04 EE         POP     Y
2F05 AF         MOV     (X)+,A
2F06 3C         ROL     A
2F07 64 0F      CMP     A,$0F
2F09 8C 4B 8C   DEC     $8C4B
2F0C E2 32      SET1    $32.#7
2F0E 00         NOP
2F0F ED         NOTC
2F10 C8 EE      CMP     X,#$EE
2F12 FF         STOP
2F13 00         NOP
2F14 FB 8C      MOV     Y,$8C+X
2F16 00         NOP
2F17 7F         RETI
2F18 E5 64 89   MOV     A,$8964
2F1B E6         MOV     A,(X)
2F1C 02 DC      SET1    $DC.#0
2F1E 00         NOP
2F1F 50 89      BVC     $2EAA
2F21 25 2F 00   AND     A,$002F
2F24 00         NOP
2F25 35 2F 54   AND     A,$542F+X
2F28 2F 70      BRA     $2F9A
2F2A 2F 90      BRA     $2EBC
2F2C 2F AE      BRA     $2EDC
2F2E 2F C9      BRA     $2EF9
2F30 2F 00      BRA     $2F32
2F32 00         NOP
2F33 00         NOP
2F34 00         NOP
2F35 FA 14 E1   MOV     $E1,$14
2F38 00         NOP
2F39 E2 FF      SET1    $FF.#7
2F3B 14 E0      OR      A,$E0+X
2F3D 06         OR      A,(X)
2F3E E7 7B      MOV     A,[$7B+X]
2F40 ED         NOTC
2F41 DC         DEC     Y
2F42 EE         POP     Y
2F43 FF         STOP
2F44 14 E5      OR      A,$E5+X
2F46 1E 6F 80   CMP     X,$806F
2F49 F9 00      MOV     X,$00+Y
2F4B 1E A4 E6   CMP     X,$E6A4
2F4E 0C 00 00   ASL     $0000
2F51 0F         BRK
2F52 C9 00 E1   MOV     $E100,X
2F55 14 E2      OR      A,$E2+X
2F57 FF         STOP
2F58 00         NOP
2F59 E0         CLRV
2F5A 06         OR      A,(X)
2F5B E7 7B      MOV     A,[$7B+X]
2F5D ED         NOTC
2F5E 96 EE FF   ADC     A,$FFEE+Y
2F61 14 E5      OR      A,$E5+X
2F63 1E 6F 84   CMP     X,$846F
2F66 F9 00      MOV     X,$00+Y
2F68 1E A8 E6   CMP     X,$E6A8
2F6B 0C 00 00   ASL     $0000
2F6E 0F         BRK
2F6F C9 E1 00   MOV     $00E1,X
2F72 E2 FF      SET1    $FF.#7
2F74 14 E0      OR      A,$E0+X
2F76 06         OR      A,(X)
2F77 E7 7B      MOV     A,[$7B+X]
2F79 ED         NOTC
2F7A 64 EE      CMP     A,$EE
2F7C FF         STOP
2F7D 0F         BRK
2F7E 0A C9 F4   OR1     C,$14C9.#7
2F81 63 E5 1E   BBS     $E5,#3,$2FA2
2F84 6F         RET
2F85 80         SETC
2F86 F9 00      MOV     X,$00+Y
2F88 1E A4 E6   CMP     X,$E6A4
2F8B 0C 00 00   ASL     $0000
2F8E 05 C9 E1   OR      A,$E1C9
2F91 14 E2      OR      A,$E2+X
2F93 FF         STOP
2F94 00         NOP
2F95 E0         CLRV
2F96 06         OR      A,(X)
2F97 E7 7B      MOV     A,[$7B+X]
2F99 ED         NOTC
2F9A 5A EE      CMPW    YA,$EE
2F9C FF         STOP
2F9D 0F         BRK
2F9E 0F         BRK
2F9F C9 F4 7C   MOV     $7CF4,X
2FA2 E5 1E 6F   MOV     A,$6F1E
2FA5 84 F9      ADC     A,$F9
2FA7 00         NOP
2FA8 1E A8 E6   CMP     X,$E6A8
2FAB 0C 00 00   ASL     $0000
2FAE E1         TCALL   $E
2FAF 08 E0      OR      A,#$E0
2FB1 06         OR      A,(X)
2FB2 E7 7B      MOV     A,[$7B+X]
2FB4 ED         NOTC
2FB5 8C EE FF   DEC     $FFEE
2FB8 0F         BRK
2FB9 F4 3C      MOV     A,$3C+X
2FBB E5 0A 6F   MOV     A,$6F0A
2FBE 8C F9 00   DEC     $00F9
2FC1 0A B0 E6   OR1     C,$06B0.#7
2FC4 24 00      AND     A,$00
2FC6 0A 0F C9   OR1     C,$090F.#6
2FC9 E1         TCALL   $E
2FCA 0C E0 06   ASL     $06E0
2FCD E7 7B      MOV     A,[$7B+X]
2FCF ED         NOTC
2FD0 96 EE FF   ADC     A,$FFEE+Y
2FD3 0F         BRK
2FD4 E5 0A 6F   MOV     A,$6F0A
2FD7 98 F9 00   ADC     $00,#$F9
2FDA 0A A4 E6   OR1     C,$06A4.#7
2FDD 24 00      AND     A,$00
2FDF 00         NOP
2FE0 0F         BRK
2FE1 C9 00 00   MOV     $0000,X
2FE4 00         NOP
2FE5 00         NOP
2FE6 00         NOP
2FE7 00         NOP
2FE8 00         NOP
2FE9 00         NOP
2FEA 00         NOP
2FEB 00         NOP
2FEC 00         NOP
2FED 00         NOP
2FEE 00         NOP
2FEF 00         NOP
2FF0 00         NOP
2FF1 00         NOP
2FF2 00         NOP
2FF3 00         NOP
2FF4 00         NOP
2FF5 00         NOP
2FF6 00         NOP
2FF7 00         NOP
2FF8 00         NOP
2FF9 00         NOP
2FFA 00         NOP
2FFB 00         NOP
2FFC 00         NOP
2FFD 00         NOP
2FFE 00         NOP
2FFF 00         NOP
; song start
3000 2C 30 1C   ROL     $1C30
3003 30 0C      BMI     $3011
3005 30 FF      BMI     $3006
3007 00         NOP
3008 02 30      SET1    $30.#0
300A 00         NOP
300B 00         NOP
300C 3C         ROL     A
300D 30 89      BMI     $2F98
300F 30 D5      BMI     $2FE6
3011 30 05      BMI     $3018
3013 31         TCALL   $3
3014 7C         ROR     A
3015 31         TCALL   $3
3016 22 32      SET1    $32.#1
3018 00         NOP
3019 00         NOP
301A 00         NOP
301B 00         NOP
301C 89 32 CF   ADC     $CF,$32
301F 32 02      CLR1    $02.#1
3021 33 35 33   BBC     $35,#1,$3057
3024 B5 33 E5   SBC     A,$E533+X
3027 33 00 00   BBC     $00,#1,$302A
302A 00         NOP
302B 00         NOP
302C 12 34      CLR1    $34.#0
302E 21         TCALL   $2
302F 34 2B      AND     A,$2B+X
3031 34 3B      AND     A,$3B+X
3033 34 3F      AND     A,$3F+X
3035 34 43      AND     A,$43+X
3037 34 00      AND     A,$00+X
3039 00         NOP
303A 00         NOP
303B 00         NOP
303C E0         CLRV
303D 01         TCALL   $0
303E E7 16      MOV     A,[$16+X]
3040 ED         NOTC
3041 78 E3 0A   CMP     $0A,#$E3
3044 1E 46 F4   CMP     X,$F446
3047 28 2A      AND     A,#$2A
3049 7F         RETI
304A B0 06      BCS     $3052
304C AB B0      INC     $B0
304E 24 B7      AND     A,$B7
3050 06         OR      A,(X)
3051 B5 B4 24   SBC     A,$24B4+X
3054 B0 EF      BCS     $3045
3056 57 34      EOR     A,[$34]+Y
3058 01         TCALL   $0
3059 06         OR      A,(X)
305A B0 B2      BCS     $300E
305C B4 B2      SBC     A,$B2+X
305E B0 AF      BCS     $300F
3060 AB 06      INC     $06
3062 72 AB      CLR1    $AB.#3
3064 06         OR      A,(X)
3065 7F         RETI
3066 B0 B2      BCS     $301A
3068 24 B3      AND     A,$B3
306A EF         SLEEP
306B 6C 34 02   ROR     $0234
306E 06         OR      A,(X)
306F B0 B3      BCS     $3024
3071 24 BC      AND     A,$BC
3073 06         OR      A,(X)
3074 BA B8      MOVW    YA,$B8
3076 B7 B0      SBC     A,[$B0]+Y
3078 B2 B3      CLR1    $B3.#5
307A 0C B2 06   ASL     $06B2
307D B3 B5 0C   BBC     $B5,#5,$308C
3080 B3 06 B5   BBC     $06,#5,$3038
3083 B6 0C B5   SBC     A,$B50C+Y
3086 06         OR      A,(X)
3087 B6 00 E0   SBC     A,$E000+Y
308A 01         TCALL   $0
308B ED         NOTC
308C A0         EI
308D E3 0A 1E   BBS     $0A,#7,$30AE
3090 64 FB      CMP     A,$FB
3092 78 A0 00   CMP     $00,#$A0
3095 E7 16      MOV     A,[$16+X]
3097 1E 6F B0   CMP     X,$B06F
309A 06         OR      A,(X)
309B AB B0      INC     $B0
309D 24 B7      AND     A,$B7
309F 06         OR      A,(X)
30A0 B5 B4 24   SBC     A,$24B4+X
30A3 B0 EF      BCS     $3094
30A5 57 34      EOR     A,[$34]+Y
30A7 01         TCALL   $0
30A8 06         OR      A,(X)
30A9 B0 B2      BCS     $305D
30AB B4 B2      SBC     A,$B2+X
30AD B0 AF      BCS     $305E
30AF AB C9      INC     $C9
30B1 B0 B2      BCS     $3065
30B3 24 B3      AND     A,$B3
30B5 EF         SLEEP
30B6 6C 34 02   ROR     $0234
30B9 06         OR      A,(X)
30BA B0 B3      BCS     $306F
30BC 24 BC      AND     A,$BC
30BE 06         OR      A,(X)
30BF BA B8      MOVW    YA,$B8
30C1 B7 B0      SBC     A,[$B0]+Y
30C3 B2 B3      CLR1    $B3.#5
30C5 0C B2 06   ASL     $06B2
30C8 B3 B5 0C   BBC     $B5,#5,$30D7
30CB B3 06 B5   BBC     $06,#5,$3083
30CE B6 0C B5   SBC     A,$B50C+Y
30D1 06         OR      A,(X)
30D2 B6 0C B8   SBC     A,$B80C+Y
30D5 E0         CLRV
30D6 04 ED      OR      A,$ED
30D8 8C FB 50   DEC     $50FB
30DB 82 00      SET1    $00.#4
30DD E7 16      MOV     A,[$16+X]
30DF E1         TCALL   $E
30E0 0C 50 7F   ASL     $7F50
30E3 B4 06      SBC     A,$06+X
30E5 B5 B7 54   SBC     A,$54B7+X
30E8 B2 06      CLR1    $06.#5
30EA B4 B5      SBC     A,$B5+X
30EC 60         CLRC
30ED B0 36      BCS     $3125
30EF AD 30      CMP     Y,#$30
30F1 AF         MOV     (X)+,A
30F2 50 B3      BVC     $30A7
30F4 06         OR      A,(X)
30F5 B5 B3 54   SBC     A,$54B3+X
30F8 B1         TCALL   $B
30F9 06         OR      A,(X)
30FA B3 B1 66   BBC     $B1,#5,$3163
30FD B0 12      BCS     $3111
30FF AC 18 AE   INC     $AE18
3102 AF         MOV     (X)+,A
3103 1E B1 E0   CMP     X,$E0B1
3106 02 ED      SET1    $ED.#0
3108 5F FB 96   JMP     $96FB
310B 82 00      SET1    $00.#4
310D E7 16      MOV     A,[$16+X]
310F E1         TCALL   $E
3110 0E E5 06   TSET1   $06E5
3113 7F         RETI
3114 A8 AB      SBC     A,#$AB
3116 B0 E6      BCS     $30FE
3118 05 00 00   OR      A,$0000
311B A6         SBC     A,(X)
311C C8 A9      CMP     X,#$A9
311E AE         POP     A
311F E5 A6 A9   MOV     A,$A9A6
3122 AE         POP     A
3123 E6         MOV     A,(X)
3124 04 00      OR      A,$00
3126 00         NOP
3127 A4 C8      SBC     A,$C8
3129 E5 A8 AD   MOV     A,$ADA8
312C A4 E6      SBC     A,$E6
312E 04 00      OR      A,$00
3130 00         NOP
3131 A8 AD      SBC     A,#$AD
3133 A8 A9      SBC     A,#$A9
3135 A4 A9      SBC     A,$A9
3137 AD A9      CMP     Y,#$A9
3139 AD B0      CMP     Y,#$B0
313B A9 AB A6   SBC     $A6,$AB
313E AB AF      INC     $AF
3140 B2 AB      CLR1    $AB.#5
3142 AF         MOV     (X)+,A
3143 B2 E5      CLR1    $E5.#5
3145 A7 AB      SBC     A,[$AB+X]
3147 AE         POP     A
3148 E6         MOV     A,(X)
3149 05 00 00   OR      A,$0000
314C A7 C8      SBC     A,[$C8+X]
314E A9 AC E5   SBC     $E5,$AC
3151 A5 A9 AC   SBC     A,$ACA9
3154 E6         MOV     A,(X)
3155 04 00      OR      A,$00
3157 00         NOP
3158 A4 C8      SBC     A,$C8
315A A7 AB      SBC     A,[$AB+X]
315C E5 A4 A7   MOV     A,$A7A4
315F AB E6      INC     $E6
3161 04 00      OR      A,$00
3163 00         NOP
3164 A4 E0      SBC     A,$E0
3166 01         TCALL   $0
3167 ED         NOTC
3168 7C         ROR     A
3169 AC AE B0   INC     $B0AE
316C 0C AE 06   ASL     $06AE
316F B0 B2      BCS     $3123
3171 0C AF 06   ASL     $06AF
3174 B1         TCALL   $B
3175 B3 0C B1   BBC     $0C,#5,$3129
3178 06         OR      A,(X)
3179 B3 0C B5   BBC     $0C,#5,$3131
317C E0         CLRV
317D 00         NOP
317E ED         NOTC
317F 92 E7      CLR1    $E7.#4
3181 16 FB 78   OR      A,$78FB+Y
3184 D2 00      CLR1    $00.#6
3186 06         OR      A,(X)
3187 6F         RET
3188 A4 A4      SBC     A,$A4
318A AB A4      INC     $A4
318C A4 AB      SBC     A,$AB
318E A4 A4      SBC     A,$A4
3190 A4 A4      SBC     A,$A4
3192 AB A4      INC     $A4
3194 A4 B0      SBC     A,$B0
3196 AB A2      INC     $A2
3198 C8 A2      CMP     X,#$A2
319A AE         POP     A
319B A2 A2      SET1    $A2.#5
319D A2 AE      SET1    $AE.#5
319F A2 A2      SET1    $A2.#5
31A1 A2 A9      SET1    $A9.#5
31A3 A2 A2      SET1    $A2.#5
31A5 A9 A2 A1   SBC     $A1,$A2
31A8 C8 A1      CMP     X,#$A1
31AA AD A1      CMP     Y,#$A1
31AC A1         TCALL   $A
31AD AD A1      CMP     Y,#$A1
31AF A1         TCALL   $A
31B0 A1         TCALL   $A
31B1 A1         TCALL   $A
31B2 06         OR      A,(X)
31B3 7F         RETI
31B4 A1         TCALL   $A
31B5 06         OR      A,(X)
31B6 6F         RET
31B7 AD A1      CMP     Y,#$A1
31B9 A1         TCALL   $A
31BA A8 9D      SBC     A,#$9D
31BC C8 9D      CMP     X,#$9D
31BE A9 9D 9D   SBC     $9D,$9D
31C1 9D         MOV     X,SP
31C2 9D         MOV     X,SP
31C3 9F         XCN     A
31C4 9F         XCN     A
31C5 9F         XCN     A
31C6 9F         XCN     A
31C7 9F         XCN     A
31C8 9F         XCN     A
31C9 A4 A6      SBC     A,$A6
31CB 0C 7F A7   ASL     $A77F
31CE 06         OR      A,(X)
31CF 6F         RET
31D0 A7 A7      SBC     A,[$A7+X]
31D2 A2 A7      SET1    $A7.#5
31D4 A7 A7      SBC     A,[$A7+X]
31D6 A7 A7      SBC     A,[$A7+X]
31D8 03 A7 9B   BBS     $A7,#0,$3176
31DB 06         OR      A,(X)
31DC AE         POP     A
31DD A7 A7      SBC     A,[$A7+X]
31DF A7 AE      SBC     A,[$AE+X]
31E1 0C A5 06   ASL     $06A5
31E4 A5 A5 A5   SBC     A,$A5A5
31E7 A5 A5 A5   SBC     A,$A5A5
31EA A5 A5 A5   SBC     A,$A5A5
31ED AC A5 A5   INC     $A5A5
31F0 AC A5 A4   INC     $A4A5
31F3 C8 A4      CMP     X,#$A4
31F5 A4 A4      SBC     A,$A4
31F7 A4 A4      SBC     A,$A4
31F9 A4 A4      SBC     A,$A4
31FB A4 A4      SBC     A,$A4
31FD AB A4      INC     $A4
31FF A4 06      SBC     A,$06
3201 7F         RETI
3202 B0 06      BCS     $320A
3204 6F         RET
3205 A4 98      SBC     A,$98
3207 A0         EI
3208 A0         EI
3209 A0         EI
320A 0C 7F A2   ASL     $A27F
320D 06         OR      A,(X)
320E 6F         RET
320F A2 A2      SET1    $A2.#5
3211 0C 7F A3   ASL     $A37F
3214 06         OR      A,(X)
3215 6F         RET
3216 A3 A3 99   BBS     $A3,#5,$31B2
3219 0C 99 0C   ASL     $0C99
321C 7F         RETI
321D A5 F9 06   SBC     A,$06F9
3220 06         OR      A,(X)
3221 99         ADC     (X),(Y)
3222 ED         NOTC
3223 F0 E7      BEQ     $320C
3225 16 E5 0C   OR      A,$0CE5+Y
3228 6F         RET
3229 CA 12 CB   MOV1    $0B12.#6,C
322C 06         OR      A,(X)
322D CA 12 CB   MOV1    $0B12.#6,C
3230 06         OR      A,(X)
3231 CA 12 CB   MOV1    $0B12.#6,C
3234 06         OR      A,(X)
3235 CA 0C CB   MOV1    $0B0C.#6,C
3238 E6         MOV     A,(X)
3239 03 00 00   BBS     $00,#0,$323C
323C CA 12 CB   MOV1    $0B12.#6,C
323F 06         OR      A,(X)
3240 CA 0C CB   MOV1    $0B0C.#6,C
3243 06         OR      A,(X)
3244 D1         TCALL   $D
3245 CB D0      MOV     $D0,Y
3247 0C CF 06   ASL     $06CF
324A CB CA      MOV     $CA,Y
324C CE         POP     X
324D 0C C8 CB   ASL     $CBC8
3250 CA CB 06   MOV1    $06CB.#0,C
3253 CA CA 12   MOV1    $12CA.#0,C
3256 CB 06      MOV     $06,Y
3258 CA 0C CB   MOV1    $0B0C.#6,C
325B E5 CA CB   MOV     A,$CBCA
325E CA CB 06   MOV1    $06CB.#0,C
3261 CA CA CB   MOV1    $0BCA.#6,C
3264 0C CA 06   ASL     $06CA
3267 CA 0C CB   MOV1    $0B0C.#6,C
326A E6         MOV     A,(X)
326B 02 00      SET1    $00.#0
326D 00         NOP
326E CE         POP     X
326F 06         OR      A,(X)
3270 CB 0C      MOV     $0C,Y
3272 CE         POP     X
3273 CB CE      MOV     $CE,Y
3275 06         OR      A,(X)
3276 CB EA      MOV     $EA,Y
3278 04 03      OR      A,$03
327A 7F         RETI
327B D1         TCALL   $D
327C D1         TCALL   $D
327D D1         TCALL   $D
327E D1         TCALL   $D
327F EA 00 D1   NOT1    $1100.#6
3282 D1         TCALL   $D
3283 D1         TCALL   $D
3284 D1         TCALL   $D
3285 CF         MUL     YA
3286 CF         MUL     YA
3287 CF         MUL     YA
3288 CF         MUL     YA
3289 E0         CLRV
328A 0F         BRK
328B ED         NOTC
328C 8C E3 14   DEC     $14E3
328F 25 46 F0   AND     A,$F046
3292 32 FB      CLR1    $FB.#1
3294 8C 9D 00   DEC     $009D
3297 E7 16      MOV     A,[$16+X]
3299 F4 14      MOV     A,$14+X
329B 66         CMP     A,(X)
329C 7F         RETI
329D AB 06      INC     $06
329F A4 AB      SBC     A,$AB
32A1 B0 30      BCS     $32D3
32A3 C8 12      CMP     X,#$12
32A5 AE         POP     A
32A6 AD 0C      CMP     Y,#$0C
32A8 A9 4E AB   SBC     $AB,$4E
32AB 06         OR      A,(X)
32AC 6F         RET
32AD AB B0      INC     $B0
32AF 06         OR      A,(X)
32B0 7F         RETI
32B1 B5 1E 68   SBC     A,$681E+X
32B4 C8 E0      CMP     X,#$E0
32B6 0B E2      ASL     $E2
32B8 14 11      OR      A,$11+X
32BA ED         NOTC
32BB 64 06      CMP     A,$06
32BD 7F         RETI
32BE A2 03      SET1    $03.#5
32C0 A6         SBC     A,(X)
32C1 A9 AE A6   SBC     $A6,$AE
32C4 A9 AE B2   SBC     $B2,$AE
32C7 A9 AE B2   SBC     $B2,$AE
32CA B5 BA E1   SBC     A,$E1BA+X
32CD 0A 00 E0   OR1     C,$0000.#7
32D0 0F         BRK
32D1 ED         NOTC
32D2 AA E3 14   MOV1    C,$14E3.#0
32D5 25 C8 F0   AND     A,$F0C8
32D8 32 FB      CLR1    $FB.#1
32DA 8C 9C 00   DEC     $009C
32DD E7 16      MOV     A,[$16+X]
32DF 4E 7F A8   TCLR1   $A87F
32E2 06         OR      A,(X)
32E3 A1         TCALL   $A
32E4 A8 AD      SBC     A,#$AD
32E6 30 C8      BMI     $32B0
32E8 12 AB      CLR1    $AB.#0
32EA A9 0C A6   SBC     $A6,$0C
32ED 4E A8 06   TCLR1   $06A8
32F0 A8 AD      SBC     A,#$AD
32F2 FB 8C      MOV     Y,$8C+X
32F4 9D         MOV     X,SP
32F5 00         NOP
32F6 B2 48      CLR1    $48.#5
32F8 C8 E0      CMP     X,#$E0
32FA 04 ED      OR      A,$ED
32FC 28 EE      AND     A,#$EE
32FE 14 AA      OR      A,$AA+X
3300 18 A9 E0   OR      $E0,#$A9
3303 0F         BRK
3304 ED         NOTC
3305 AA E3 14   MOV1    C,$14E3.#0
3308 25 C8 F0   AND     A,$F0C8
330B 32 FB      CLR1    $FB.#1
330D 8C 9C 00   DEC     $009C
3310 E7 16      MOV     A,[$16+X]
3312 4E 7F AB   TCLR1   $AB7F
3315 06         OR      A,(X)
3316 A4 AB      SBC     A,$AB
3318 B0 30      BCS     $334A
331A C8 12      CMP     X,#$12
331C AE         POP     A
331D AD 0C      CMP     Y,#$0C
331F A9 4E AB   SBC     $AB,$4E
3322 06         OR      A,(X)
3323 AB B0      INC     $B0
3325 FB 8C      MOV     Y,$8C+X
3327 9D         MOV     X,SP
3328 00         NOP
3329 B5 48 C8   SBC     A,$C848+X
332C E0         CLRV
332D 04 ED      OR      A,$ED
332F 28 EE      AND     A,#$EE
3331 14 AA      OR      A,$AA+X
3333 18 AD E0   OR      $E0,#$AD
3336 02 ED      SET1    $ED.#0
3338 64 E7      CMP     A,$E7
333A 16 E2 60   OR      A,$60E2+Y
333D 14 E5      OR      A,$E5+X
333F 03 7F AB   BBS     $7F,#0,$32ED
3342 03 79 AB   BBS     $79,#0,$32F0
3345 03 7F B0   BBS     $7F,#0,$32F8
3348 03 79 AB   BBS     $79,#0,$32F6
334B 03 7F B7   BBS     $7F,#0,$3305
334E 03 79 B0   BBS     $79,#0,$3301
3351 E6         MOV     A,(X)
3352 05 00 00   OR      A,$0000
3355 06         OR      A,(X)
3356 6F         RET
3357 B0 E2      BCS     $333B
3359 60         CLRC
335A 00         NOP
335B E5 03 7F   MOV     A,$7F03
335E A9 03 79   SBC     $79,$03
3361 A9 03 7F   SBC     $7F,$03
3364 AE         POP     A
3365 03 79 A9   BBS     $79,#0,$3311
3368 03 7F B5   BBS     $7F,#0,$3320
336B 03 79 AE   BBS     $79,#0,$331C
336E E6         MOV     A,(X)
336F 05 00 00   OR      A,$0000
3372 06         OR      A,(X)
3373 7F         RETI
3374 AE         POP     A
3375 E2 60      SET1    $60.#7
3377 14 E5      OR      A,$E5+X
3379 03 AB 03   BBS     $AB,#0,$337F
337C 79         CMP     (X),(Y)
337D AB 03      INC     $03
337F 7F         RETI
3380 B0 03      BCS     $3385
3382 79         CMP     (X),(Y)
3383 AB 03      INC     $03
3385 7F         RETI
3386 B7 03      SBC     A,[$03]+Y
3388 79         CMP     (X),(Y)
3389 B0 E6      BCS     $3371
338B 05 00 00   OR      A,$0000
338E 06         OR      A,(X)
338F 6F         RET
3390 BC         INC     A
3391 E2 60      SET1    $60.#7
3393 00         NOP
3394 E5 03 7F   MOV     A,$7F03
3397 A9 03 79   SBC     $79,$03
339A A9 03 7F   SBC     $7F,$03
339D AE         POP     A
339E 03 79 A9   BBS     $79,#0,$334A
33A1 03 7F B5   BBS     $7F,#0,$3359
33A4 03 79 AE   BBS     $79,#0,$3355
33A7 E6         MOV     A,(X)
33A8 04 00      OR      A,$00
33AA 00         NOP
33AB E0         CLRV
33AC 04 ED      OR      A,$ED
33AE 14 EE      OR      A,$EE+X
33B0 14 A0      OR      A,$A0+X
33B2 18 7F A6   OR      $A6,#$7F
33B5 E0         CLRV
33B6 00         NOP
33B7 ED         NOTC
33B8 96 E7 16   ADC     A,$16E7+Y
33BB E5 06 6F   MOV     A,$6F06
33BE A4 A4      SBC     A,$A4
33C0 AB A4      INC     $A4
33C2 A4 AB      SBC     A,$AB
33C4 A4 A4      SBC     A,$A4
33C6 AB A4      INC     $A4
33C8 A4 0C      SBC     A,$0C
33CA AB 06      INC     $06
33CC A4 B0      SBC     A,$B0
33CE A4 E6      SBC     A,$E6
33D0 03 00 00   BBS     $00,#0,$33D3
33D3 A4 B0      SBC     A,$B0
33D5 A4 A4      SBC     A,$A4
33D7 B0 AB      BCS     $3384
33D9 A4 A4      SBC     A,$A4
33DB AB 06      INC     $06
33DD 7F         RETI
33DE B0 AE      BCS     $338E
33E0 AD AB      CMP     Y,#$AB
33E2 A9 A8 A6   SBC     $A6,$A8
33E5 ED         NOTC
33E6 F0 E7      BEQ     $33CF
33E8 16 0C 7F   OR      A,$7F0C+Y
33EB CA CB CA   MOV1    $0ACB.#6,C
33EE CB 06      MOV     $06,Y
33F0 CA CA CB   MOV1    $0BCA.#6,C
33F3 0C CA 06   ASL     $06CA
33F6 CA 0C CB   MOV1    $0B0C.#6,C
33F9 EF         SLEEP
33FA 77 34      CMP     A,[$34]+Y
33FC 02 CA      SET1    $CA.#0
33FE CB CA      MOV     $CA,Y
3400 CB EA      MOV     $EA,Y
3402 02 06      SET1    $06.#0
3404 D1         TCALL   $D
3405 D1         TCALL   $D
3406 EA 00 03   NOT1    $0300.#0
3409 D1         TCALL   $D
340A D1         TCALL   $D
340B D1         TCALL   $D
340C D1         TCALL   $D
340D 06         OR      A,(X)
340E D0 D0      BNE     $33E0
3410 CF         MUL     YA
3411 CF         MUL     YA
3412 FA 14 E7   MOV     $E7,$14
3415 16 ED F0   OR      A,$F0ED+Y
3418 06         OR      A,(X)
3419 C9 0C 6F   MOV     $6F0C,X
341C CA CA 12   MOV1    $12CA.#0,C
341F C9 00 ED   MOV     $ED00,X
3422 F0 E7      BEQ     $340B
3424 16 0C 77   OR      A,$770C+Y
3427 CE         POP     X
3428 24 7F      AND     A,$7F
342A CE         POP     X
342B E7 16      MOV     A,[$16+X]
342D ED         NOTC
342E AA 0C 7F   MOV1    C,$1F0C.#3
3431 CB 12      MOV     $12,Y
3433 CB 03      MOV     $03,Y
3435 D1         TCALL   $D
3436 D1         TCALL   $D
3437 D0 D0      BNE     $3409
3439 CF         MUL     YA
343A CF         MUL     YA
343B E7 16      MOV     A,[$16+X]
343D 30 C9      BMI     $3408
343F E7 16      MOV     A,[$16+X]
3441 30 C9      BMI     $340C
3443 E7 16      MOV     A,[$16+X]
3445 ED         NOTC
3446 F0 07      BEQ     $344F
3448 7F         RETI
3449 CB 06      MOV     $06,Y
344B CA CB CA   MOV1    $0ACB.#6,C
344E C9 03 D1   MOV     $D103,X
3451 D1         TCALL   $D
3452 D0 D0      BNE     $3424
3454 CF         MUL     YA
3455 02 CF      SET1    $CF.#0
3457 06         OR      A,(X)
3458 AB B0      INC     $B0
345A 24 B7      AND     A,$B7
345C 06         OR      A,(X)
345D B5 B4 24   SBC     A,$24B4+X
3460 B0 06      BCS     $3468
3462 AD B0      CMP     Y,#$B0
3464 24 B9      AND     A,$B9
3466 06         OR      A,(X)
3467 B7 B5      SBC     A,[$B5]+Y
3469 24 B0      AND     A,$B0
346B 00         NOP
346C 06         OR      A,(X)
346D AE         POP     A
346E B3 24 BA   BBC     $24,#5,$342B
3471 06         OR      A,(X)
3472 B8 B7 24   SBC     $24,#$B7
3475 B3 00 CA   BBC     $00,#5,$3442
3478 CB CA      MOV     $CA,Y
347A CB 06      MOV     $06,Y
347C CA CA 12   MOV1    $12CA.#0,C
347F CB 06      MOV     $06,Y
3481 CA 0C CB   MOV1    $0B0C.#6,C
3484 00         NOP
3485 00         NOP
3486 00         NOP
3487 00         NOP
3488 00         NOP
3489 00         NOP
348A 00         NOP
348B 00         NOP
348C 00         NOP
348D 00         NOP
348E 00         NOP
348F 00         NOP
3490 00         NOP
3491 AF         MOV     (X)+,A
3492 B2 B4      CLR1    $B4.#5
3494 B6 B7 B9   SBC     A,$B9B7+Y
3497 BB F3      INC     $F3+X
3499 E1         TCALL   $E
349A 05 E2 5C   OR      A,$5CE2
349D 0F         BRK
349E E0         CLRV
349F 02 FB      SET1    $FB.#0
34A1 9D         MOV     X,SP
34A2 6C 00 BB   ROR     $BB00
34A5 B7 B4      SBC     A,[$B4]+Y
34A7 B0 B4      BCS     $345D
34A9 B7 BB      SBC     A,[$BB]+Y
34AB B7 B4      SBC     A,[$B4]+Y
34AD B0 B4      BCS     $3463
34AF B7 E2      SBC     A,[$E2]+Y
34B1 5C         LSR     A
34B2 05 B9 B6   OR      A,$B6B9
34B5 B2 AF      CLR1    $AF.#5
34B7 B2 B6      CLR1    $B6.#5
34B9 B9         SBC     (X),(Y)
34BA B6 B2 AF   SBC     A,$AFB2+Y
34BD B2 B6      CLR1    $B6.#5
34BF E2 5C      SET1    $5C.#7
34C1 0F         BRK
34C2 B7 B3      SBC     A,[$B3]+Y
34C4 AE         POP     A
34C5 AB AE      INC     $AE
34C7 B3 B7 B3   BBC     $B7,#5,$347D
34CA AE         POP     A
34CB AB AE      INC     $AE
34CD B3 E2 5C   BBC     $E2,#5,$352C
34D0 05 B9 B5   OR      A,$B5B9
34D3 B0 AD      BCS     $3482
34D5 B0 B5      BCS     $348C
34D7 B9         SBC     (X),(Y)
34D8 B5 B0 AD   SBC     A,$ADB0+X
34DB B0 B5      BCS     $3492
34DD E1         TCALL   $E
34DE 0A E0 05   OR1     C,$05E0.#0
34E1 ED         NOTC
34E2 BE         DAS     A
34E3 FB 96      MOV     Y,$96+X
34E5 D2 00      CLR1    $00.#6
34E7 10 7F      BPL     $3568
34E9 AB 10      INC     $10
34EB 75 AB 10   CMP     A,$10AB+X
34EE 73 AB 10   BBC     $AB,#3,$3501
34F1 7F         RETI
34F2 A9 10 75   SBC     $75,$10
34F5 A9 10 73   SBC     $73,$10
34F8 A9 10 7F   SBC     $7F,$10
34FB A8 10      SBC     A,#$10
34FD 75 A8 10   CMP     A,$10A8+X
3500 73 A8 10   BBC     $A8,#3,$3513
3503 7F         RETI
3504 A6         SBC     A,(X)
3505 10 75      BPL     $357C
3507 A6         SBC     A,(X)
3508 10 73      BPL     $357D
350A A6         SBC     A,(X)
350B E0         CLRV
350C 04 ED      OR      A,$ED
350E A0         EI
350F E1         TCALL   $E
3510 08 E7      OR      A,#$E7
3512 21         TCALL   $2
3513 FB 61      MOV     Y,$61+X
3515 BC         INC     A
3516 00         NOP
3517 E3 18 16   BBS     $18,#7,$3530
351A A0         EI
351B F0 1E      BEQ     $353B
351D F4 00      MOV     A,$00+X
351F 60         CLRC
3520 7F         RETI
3521 B4 B2      SBC     A,$B2+X
3523 B0 EF      BCS     $3514
3525 83 37 01   BBS     $37,#4,$3529
3528 B2 B3      CLR1    $B3.#5
352A B5 0C C8   SBC     A,$C80C+X
352D E0         CLRV
352E 05 ED 82   OR      A,$82ED
3531 F4 32      MOV     A,$32+X
3533 FB 96      MOV     Y,$96+X
3535 D2 00      CLR1    $00.#6
3537 30 AB      BMI     $34E4
3539 A9 A8 24   SBC     $24,$A8
353C A6         SBC     A,(X)
353D F4 00      MOV     A,$00+X
353F ED         NOTC
3540 FF         STOP
3541 E7 21      MOV     A,[$21+X]
3543 E5 10 6F   MOV     A,$6F10
3546 CA 08 6D   MOV1    $0D08.#3,C
3549 CA 10 7F   MOV1    $1F10.#3,C
354C CB 08      MOV     $08,Y
354E 6B CA      ROR     $CA
3550 04 73      OR      A,$73
3552 CA 04 75   MOV1    $1504.#3,C
3555 CA 04 77   MOV1    $1704.#3,C
3558 CA 06 69   MOV1    $0906.#3,C
355B CA 06 6B   MOV1    $0B06.#3,C
355E CA 18 7F   MOV1    $1F18.#3,C
3561 CB E6      MOV     $E6,Y
3563 03 00 00   BBS     $00,#0,$3566
3566 04 69      OR      A,$69
3568 D1         TCALL   $D
3569 04 6B      OR      A,$6B
356B D1         TCALL   $D
356C 08 6D      OR      A,#$6D
356E D1         TCALL   $D
356F D1         TCALL   $D
3570 CB CB      MOV     $CB,Y
3572 CB 08      MOV     $08,Y
3574 6F         RET
3575 D0 D0      BNE     $3547
3577 D0 CF      BNE     $3548
3579 CF         MUL     YA
357A CF         MUL     YA
357B E5 10 CA   MOV     A,$CA10
357E 08 6D      OR      A,#$6D
3580 CA 10 7F   MOV1    $1F10.#3,C
3583 CB 08      MOV     $08,Y
3585 6B CA      ROR     $CA
3587 04 73      OR      A,$73
3589 CA 04 75   MOV1    $1504.#3,C
358C CA 04 77   MOV1    $1704.#3,C
358F CA 06 69   MOV1    $0906.#3,C
3592 CA 06 6B   MOV1    $0B06.#3,C
3595 CA 18 7F   MOV1    $1F18.#3,C
3598 CB E6      MOV     $E6,Y
359A 03 00 00   BBS     $00,#0,$359D
359D EA 06 04   NOT1    $0406.#0
35A0 68 D1      CMP     A,#$D1
35A2 04 6B      OR      A,$6B
35A4 D1         TCALL   $D
35A5 08 6D      OR      A,#$6D
35A7 D1         TCALL   $D
35A8 D1         TCALL   $D
35A9 EA 00 D1   NOT1    $1100.#6
35AC D1         TCALL   $D
35AD D1         TCALL   $D
35AE 08 6F      OR      A,#$6F
35B0 D0 D0      BNE     $3582
35B2 D0 CF      BNE     $3583
35B4 CF         MUL     YA
35B5 CF         MUL     YA
35B6 10 CA      BPL     $3582
35B8 08 6D      OR      A,#$6D
35BA CA 08 7F   MOV1    $1F08.#3,C
35BD CB CB      MOV     $CB,Y
35BF CB 10      MOV     $10,Y
35C1 6F         RET
35C2 CA 08 6D   MOV1    $0D08.#3,C
35C5 CA 08 7F   MOV1    $1F08.#3,C
35C8 CB CB      MOV     $CB,Y
35CA CB CA      MOV     $CA,Y
35CC CA 08 7D   MOV1    $1D08.#3,C
35CF CA 08 7B   MOV1    $1B08.#3,C
35D2 CB 08      MOV     $08,Y
35D4 7D         MOV     A,X
35D5 CB 08      MOV     $08,Y
35D7 7F         RETI
35D8 CB 04      MOV     $04,Y
35DA 6D         PUSH    Y
35DB D1         TCALL   $D
35DC D1         TCALL   $D
35DD 08 D1      OR      A,#$D1
35DF D1         TCALL   $D
35E0 08 6F      OR      A,#$6F
35E2 D0 D0      BNE     $35B4
35E4 D0 E1      BNE     $35C7
35E6 0F         BRK
35E7 E7 21      MOV     A,[$21+X]
35E9 ED         NOTC
35EA F0 18      BEQ     $3604
35EC 7F         RETI
35ED CE         POP     X
35EE E0         CLRV
35EF 01         TCALL   $0
35F0 ED         NOTC
35F1 8C F4 2F   DEC     $2FF4
35F4 FB 67      MOV     Y,$67+X
35F6 9D         MOV     X,SP
35F7 00         NOP
35F8 E3 0C 18   BBS     $0C,#7,$3613
35FB C8 F0      CMP     X,#$F0
35FD 28 EF      AND     A,#$EF
35FF 86         ADC     A,(X)
3600 37 01      AND     A,[$01]+Y
3602 B6 B7 FB   SBC     A,$FBB7+Y
3605 69 A0 00   CMP     $00,$A0
3608 28 B9      AND     A,#$B9
360A 00         NOP
360B ED         NOTC
360C C8 E0      CMP     X,#$E0
360E 01         TCALL   $0
360F E7 21      MOV     A,[$21+X]
3611 FB 85      MOV     Y,$85+X
3613 9D         MOV     X,SP
3614 00         NOP
3615 E3 18 18   BBS     $18,#7,$3630
3618 82 F2      SET1    $F2.#4
361A 00         NOP
361B 01         TCALL   $0
361C FE EF      DBNZ    Y,$360D
361E 86         ADC     A,(X)
361F 37 01      AND     A,[$01]+Y
3621 B6 B7 FB   SBC     A,$FBB7+Y
3624 69 A0 00   CMP     $00,$A0
3627 40         SETP
3628 B9         SBC     (X),(Y)
3629 E0         CLRV
362A 00         NOP
362B FB 9A      MOV     Y,$9A+X
362D 61         TCALL   $6
362E 00         NOP
362F ED         NOTC
3630 B4 10      SBC     A,$10+X
3632 6F         RET
3633 AB 08      INC     $08
3635 6B AB      ROR     $AB
3637 08 6D      OR      A,#$6D
3639 AB AB      INC     $AB
363B AB 08      INC     $08
363D 6B AB      ROR     $AB
363F B2 AB      CLR1    $AB.#5
3641 AB AF      INC     $AF
3643 B2 EF      CLR1    $EF.#5
3645 B0 37      BCS     $367E
3647 01         TCALL   $0
3648 10 6F      BPL     $36B9
364A AB 08      INC     $08
364C 6B AB      ROR     $AB
364E 08 6D      OR      A,#$6D
3650 AB AB      INC     $AB
3652 AB 08      INC     $08
3654 6B AB      ROR     $AB
3656 B2 AB      CLR1    $AB.#5
3658 AB AF      INC     $AF
365A B2 EF      CLR1    $EF.#5
365C B0 37      BCS     $3695
365E 01         TCALL   $0
365F E0         CLRV
3660 02 E7      SET1    $E7.#0
3662 21         TCALL   $2
3663 ED         NOTC
3664 9B FB      DEC     $FB+X
3666 9C         DEC     A
3667 6C 00 E1   ROR     $E100
366A 05 E5 E2   OR      A,$E2E5
366D 5C         LSR     A
366E 0F         BRK
366F 08 6D      OR      A,#$6D
3671 AB AF      INC     $AF
3673 B2 AB      CLR1    $AB.#5
3675 AF         MOV     (X)+,A
3676 B7 AB      SBC     A,[$AB]+Y
3678 AF         MOV     (X)+,A
3679 B2 AB      CLR1    $AB.#5
367B AF         MOV     (X)+,A
367C B7 E2      SBC     A,[$E2]+Y
367E 5C         LSR     A
367F 05 AD B2   OR      A,$B2AD
3682 B6 AD B2   SBC     A,$B2AD+Y
3685 B9         SBC     (X),(Y)
3686 AD B2      CMP     Y,#$B2
3688 B6 AD B2   SBC     A,$B2AD+Y
368B B9         SBC     (X),(Y)
368C E2 5C      SET1    $5C.#7
368E 0F         BRK
368F AF         MOV     (X)+,A
3690 B4 B7      SBC     A,$B7+X
3692 AF         MOV     (X)+,A
3693 B4 BB      SBC     A,$BB+X
3695 AF         MOV     (X)+,A
3696 B4 B7      SBC     A,$B7+X
3698 AF         MOV     (X)+,A
3699 B4 BB      SBC     A,$BB+X
369B E2 5C      SET1    $5C.#7
369D 05 B0 B4   OR      A,$B4B0
36A0 B7 B0      SBC     A,[$B0]+Y
36A2 B7 BC      SBC     A,[$BC]+Y
36A4 AD B2      CMP     Y,#$B2
36A6 B6 AD B2   SBC     A,$B2AD+Y
36A9 B9         SBC     (X),(Y)
36AA E6         MOV     A,(X)
36AB 02 00      SET1    $00.#0
36AD 00         NOP
36AE E0         CLRV
36AF 04 ED      OR      A,$ED
36B1 BE         DAS     A
36B2 E1         TCALL   $E
36B3 08 E7      OR      A,#$E7
36B5 21         TCALL   $2
36B6 FB 57      MOV     Y,$57+X
36B8 BE         DAS     A
36B9 00         NOP
36BA E3 18 16   BBS     $18,#7,$36D3
36BD A0         EI
36BE F0 1E      BEQ     $36DE
36C0 60         CLRC
36C1 7D         MOV     A,X
36C2 AB EF      INC     $EF
36C4 83 37 01   BBS     $37,#4,$36C8
36C7 30 B0      BMI     $3679
36C9 AD 60      CMP     Y,#$60
36CB AB A6      INC     $A6
36CD A8 30      SBC     A,#$30
36CF A4 A6      SBC     A,$A6
36D1 ED         NOTC
36D2 FF         STOP
36D3 E5 10 6F   MOV     A,$6F10
36D6 CA 08 6D   MOV1    $0D08.#3,C
36D9 CA 10 7F   MOV1    $1F10.#3,C
36DC CB 08      MOV     $08,Y
36DE 6B CA      ROR     $CA
36E0 08 6D      OR      A,#$6D
36E2 CA 08 7C   MOV1    $1C08.#3,C
36E5 CB 08      MOV     $08,Y
36E7 6B CA      ROR     $CA
36E9 08 7F      OR      A,#$7F
36EB CB 08      MOV     $08,Y
36ED 7B CB      ROR     $CB+X
36EF 08 79      OR      A,#$79
36F1 CB E6      MOV     $E6,Y
36F3 07 00      OR      A,[$00+X]
36F5 00         NOP
36F6 08 7F      OR      A,#$7F
36F8 CB 08      MOV     $08,Y
36FA 6B CA      ROR     $CA
36FC 08 7D      OR      A,#$7D
36FE CB 08      MOV     $08,Y
3700 6B CA      ROR     $CA
3702 08 7F      OR      A,#$7F
3704 CB 08      MOV     $08,Y
3706 6D         PUSH    Y
3707 CA EA 06   MOV1    $06EA.#0,C
370A 04 79      OR      A,$79
370C D1         TCALL   $D
370D 04 7B      OR      A,$7B
370F D1         TCALL   $D
3710 08 6D      OR      A,#$6D
3712 D1         TCALL   $D
3713 D1         TCALL   $D
3714 EA 00 08   NOT1    $0800.#0
3717 6F         RET
3718 D1         TCALL   $D
3719 D1         TCALL   $D
371A D1         TCALL   $D
371B 48 7F      EOR     A,#$7F
371D AB 08      INC     $08
371F 7D         MOV     A,X
3720 AB AF      INC     $AF
3722 B2 60      CLR1    $60.#5
3724 B7 00      SBC     A,[$00]+Y
3726 60         CLRC
3727 B9         SBC     (X),(Y)
3728 48 7F      EOR     A,#$7F
372A AF         MOV     (X)+,A
372B 08 7D      OR      A,#$7D
372D AF         MOV     (X)+,A
372E B2 B7      CLR1    $B7.#5
3730 60         CLRC
3731 BB 48      INC     $48+X
3733 7F         RETI
3734 B0 08      BCS     $373E
3736 7D         MOV     A,X
3737 B0 B5      BCS     $36EE
3739 B9         SBC     (X),(Y)
373A 00         NOP
373B C8 10      CMP     X,#$10
373D B2 B0      CLR1    $B0.#5
373F AF         MOV     (X)+,A
3740 28 B0      AND     A,#$B0
3742 08 B7      OR      A,#$B7
3744 30 C8      BMI     $370E
3746 60         CLRC
3747 C8 30      CMP     X,#$30
3749 AB B2      INC     $B2
374B C8 10      CMP     X,#$10
374D B0 AF      BCS     $36FE
374F B0 60      BCS     $37B1
3751 AD 00      CMP     Y,#$00
3753 30 6D      BMI     $37C2
3755 B4 10      SBC     A,$10+X
3757 B4 B6      SBC     A,$B6+X
3759 B7 30      SBC     A,[$30]+Y
375B B2 10      CLR1    $10.#5
375D C9 B0 AF   MOV     $AFB0,X
3760 48 AD      EOR     A,#$AD
3762 18 AB 00   OR      $00,#$AB
3765 48 B2      EOR     A,#$B2
3767 18 B6 30   OR      $30,#$B6
376A B7 10      SBC     A,[$10]+Y
376C B7 B9      SBC     A,[$B9]+Y
376E BA B9      MOVW    YA,$B9
3770 BA FB      MOVW    YA,$FB
3772 6B A1      ROR     $A1
3774 00         NOP
3775 28 BC      AND     A,#$BC
3777 FB 67      MOV     Y,$67+X
3779 9D         MOV     X,SP
377A 00         NOP
377B 08 BC      OR      A,#$BC
377D BB BC      INC     $BC+X
377F 60         CLRC
3780 7D         MOV     A,X
3781 BE         DAS     A
3782 00         NOP
3783 B2 B4      CLR1    $B4.#5
3785 00         NOP
3786 48 6D      EOR     A,#$6D
3788 AB 08      INC     $08
378A AB AD      INC     $AD
378C AB 40      INC     $40
378E B2 10      CLR1    $10.#5
3790 B0 AF      BCS     $3741
3792 48 AB      EOR     A,#$AB
3794 08 AB      OR      A,#$AB
3796 AD AB      CMP     Y,#$AB
3798 30 B7      BMI     $3751
379A 10 B6      BPL     $3752
379C B2 AD      CLR1    $AD.#5
379E 48 AB      EOR     A,#$AB
37A0 08 AB      OR      A,#$AB
37A2 AD AB      CMP     Y,#$AB
37A4 40         SETP
37A5 B2 10      CLR1    $10.#5
37A7 B0 AF      BCS     $3758
37A9 30 AB      BMI     $3756
37AB 10 AB      BPL     $3758
37AD B4 B7      SBC     A,$B7+X
37AF 00         NOP
37B0 10 6F      BPL     $3821
37B2 AA 08 6B   MOV1    C,$0B08.#3
37B5 AA 08 6D   MOV1    C,$0D08.#3
37B8 AA AA AA   MOV1    C,$0AAA.#5
37BB 08 6B      OR      A,#$6B
37BD AA B2 AA   MOV1    C,$0AB2.#5
37C0 AA AD B2   MOV1    C,$12AD.#5
37C3 10 6F      BPL     $3834
37C5 A8 08      SBC     A,#$08
37C7 6B A8      ROR     $A8
37C9 08 6D      OR      A,#$6D
37CB A8 A8      SBC     A,#$A8
37CD A8 08      SBC     A,#$08
37CF 6B A8      ROR     $A8
37D1 AF         MOV     (X)+,A
37D2 A8 A8      SBC     A,#$A8
37D4 AB AF      INC     $AF
37D6 10 6F      BPL     $3847
37D8 B0 08      BCS     $37E2
37DA 6B B0      ROR     $B0
37DC B0 B0      BCS     $378E
37DE B0 10      BCS     $37F0
37E0 6F         RET
37E1 B2 08      CLR1    $08.#5
37E3 6B B2      ROR     $B2
37E5 B2 B0      CLR1    $B0.#5
37E7 AF         MOV     (X)+,A
37E8 00         NOP
37E9 00         NOP
37EA 00         NOP
37EB 00         NOP
37EC 00         NOP
37ED 00         NOP
37EE 00         NOP
37EF 00         NOP
37F0 00         NOP
37F1 FF         STOP
37F2 FF         STOP
37F3 FF         STOP
37F4 FF         STOP
37F5 FF         STOP
37F6 FF         STOP
37F7 FF         STOP
37F8 FF         STOP
37F9 FF         STOP
37FA FF         STOP
37FB FF         STOP
37FC FF         STOP
37FD FF         STOP
37FE FF         STOP
37FF FF         STOP
