0800 20         CLRP
0801 CD CF      MOV     X,#$CF
0803 BD         MOV     SP,X		; set SP to (01)CF
0804 E8 00      MOV     A,#$00
0806 5D         MOV     X,A
0807 AF         MOV     (X)+,A
0808 C8 E8      CMP     X,#$E8
080A D0 FB      BNE     $0807		; zero 00-E7
080C BC         INC     A
080D 3F 3D 0E   CALL    $0E3D		; set echo delay to 1 (16ms)
0810 A2 48      SET1    $48.#5
0812 3F 76 17   CALL    $1776		; init sample $28 ($f800-$ffff) 
0815 E8 3C      MOV     A,#$3C
0817 8D 5D      MOV     Y,#$5D
0819 3F 39 0A   CALL    $0A39		; source dir = $3c00
081C E8 F0      MOV     A,#$F0
081E C5 F1 00   MOV     $00F1,A		; reset ports, stop timers
0821 E8 10      MOV     A,#$10
0823 C5 FA 00   MOV     $00FA,A		; set timer0 latech to 2 ms
0826 C4 53      MOV     $53,A
0828 E8 01      MOV     A,#$01
082A C5 F1 00   MOV     $00F1,A		; start timer0
; begin main loop
082D 3F 28 17   CALL    $1728		; mess with sample $28
0830 EC FD 00   MOV     Y,$00FD
0833 F0 F8      BEQ     $082D		; wait for counter0 tick
0835 6D         PUSH    Y
0836 E8 40      MOV     A,#$40
0838 CF         MUL     YA
0839 AD 00      CMP     Y,#$00
083B F0 02      BEQ     $083F
083D 02 09      SET1    $09.#0
083F 60         CLRC
0840 84 43      ADC     A,$43
0842 C4 43      MOV     $43,A
0844 90 5D      BCC     $08A3
0846 3F 84 1A   CALL    $1A84
0849 E3 06 14   BBS     $06,#7,$0860
084C 3F EA 1E   CALL    $1EEA
084F 3F 03 16   CALL    $1603
0852 3F EB 12   CALL    $12EB
0855 3F 40 0A   CALL    $0A40
0858 E3 D4 08   BBS     $D4,#7,$0863
085B 8F 54 D8   MOV     $D8,#$54
085E 2F 21      BRA     $0881
0860 F3 D4 1E   BBC     $D4,#7,$0881
0863 8D 02      MOV     Y,#$02
0865 E4 63      MOV     A,$63
0867 F0 02      BEQ     $086B
0869 8B 63      DEC     $63
086B E4 61      MOV     A,$61
086D F0 02      BEQ     $0871
086F 8B 61      DEC     $61
0871 FE F2      DBNZ    Y,$0865
0873 E4 D8      MOV     A,$D8
0875 F0 0A      BEQ     $0881
0877 8B D8      DEC     $D8
0879 D0 06      BNE     $0881
087B 8F 00 04   MOV     $04,#$00
087E 8F FF 46   MOV     $46,#$FF
0881 E4 D8      MOV     A,$D8
0883 8D 0C      MOV     Y,#$0C
0885 3F 39 0A   CALL    $0A39
0888 8D 1C      MOV     Y,#$1C
088A 3F 39 0A   CALL    $0A39
088D CD 02      MOV     X,#$02
088F 3F 2F 09   CALL    $092F
0892 3F FA 08   CALL    $08FA
0895 13 09 04   BBC     $09,#0,$089C
0898 12 09      CLR1    $09.#0
089A 2F AA      BRA     $0846
089C 69 4D 4C   CMP     $4C,$4D
089F F0 02      BEQ     $08A3
08A1 AB 4C      INC     $4C
08A3 EE         POP     Y
08A4 E4 53      MOV     A,$53
08A6 CF         MUL     YA
08A7 AD 00      CMP     Y,#$00
08A9 F0 02      BEQ     $08AD
08AB 22 09      SET1    $09.#1
08AD 60         CLRC
08AE 84 51      ADC     A,$51
08B0 C4 51      MOV     $51,A
08B2 90 2D      BCC     $08E1
08B4 3F 3B 0B   CALL    $0B3B
08B7 CD 00      MOV     X,#$00
08B9 3F 2F 09   CALL    $092F
08BC 3F FA 08   CALL    $08FA
08BF E4 00      MOV     A,$00
08C1 68 FF      CMP     A,#$FF
08C3 D0 08      BNE     $08CD
08C5 3F E1 0A   CALL    $0AE1
08C8 8F 00 00   MOV     $00,#$00
08CB 2F 2A      BRA     $08F7
08CD 28 20      AND     A,#$20
08CF 9F         XCN     A
08D0 C4 D0      MOV     $D0,A
08D2 E4 00      MOV     A,$00
08D4 C4 D4      MOV     $D4,A
08D6 28 07      AND     A,#$07
08D8 C4 00      MOV     $00,A
08DA 33 09 1A   BBC     $09,#1,$08F7
08DD 32 09      CLR1    $09.#1
08DF 2F D3      BRA     $08B4
08E1 E4 04      MOV     A,$04
08E3 F0 12      BEQ     $08F7
08E5 CD 00      MOV     X,#$00
08E7 8F 01 47   MOV     $47,#$01
08EA F4 31      MOV     A,$31+X
08EC F0 03      BEQ     $08F1
08EE 3F C8 10   CALL    $10C8
08F1 3D         INC     X
08F2 3D         INC     X
08F3 0B 47      ASL     $47
08F5 D0 F3      BNE     $08EA
08F7 5F 2D 08   JMP     $082D
;
08FA E4 45      MOV     A,$45		; key on shadow
08FC 48 FF      EOR     A,#$FF
08FE 24 4A      AND     A,$4A
0900 C4 4A      MOV     $4A,A		; echo vbits shadow
0902 E4 45      MOV     A,$45		; key on shadow
0904 24 4F      AND     A,$4F
0906 04 4A      OR      A,$4A
0908 C4 4A      MOV     $4A,A		; echo vbits shadow
090A 8D 0A      MOV     Y,#$0A
090C AD 05      CMP     Y,#$05
090E F0 07      BEQ     $0917
0910 B0 08      BCS     $091A
0912 69 4D 4C   CMP     $4C,$4D
0915 D0 11      BNE     $0928
0917 E3 4C 0E   BBS     $4C,#7,$0928
091A F6 A2 11   MOV     A,$11A2+Y
091D C5 F2 00   MOV     $00F2,A
0920 F6 AC 11   MOV     A,$11AC+Y
0923 5D         MOV     X,A
0924 E6         MOV     A,(X)
0925 C5 F3 00   MOV     $00F3,A
0928 FE E2      DBNZ    Y,$090C		; set DSP regs from shadows
092A CB 45      MOV     $45,Y
092C CB 46      MOV     $46,Y
092E 6F         RET
;
092F F4 04      MOV     A,$04+X
0931 D5 F4 00   MOV     $00F4+X,A
0934 F5 F4 00   MOV     A,$00F4+X
0937 75 F4 00   CMP     A,$00F4+X
093A D0 F8      BNE     $0934
093C D4 00      MOV     $00+X,A
093E 6F         RET
;
093F AD CA      CMP     Y,#$CA
0941 90 0A      BCC     $094D
0943 75 11 02   CMP     A,$0211+X
0946 F0 03      BEQ     $094B
0948 3F 79 0C   CALL    $0C79
094B 8D A4      MOV     Y,#$A4
094D AD C8      CMP     Y,#$C8
094F B0 ED      BCS     $093E
0951 E4 1C      MOV     A,$1C
0953 24 47      AND     A,$47
0955 D0 E7      BNE     $093E
0957 DD         MOV     A,Y
0958 28 7F      AND     A,#$7F
095A 60         CLRC
095B 84 50      ADC     A,$50
095D 60         CLRC
095E 95 F0 02   ADC     A,$02F0+X
0961 D5 61 03   MOV     $0361+X,A
0964 F5 81 03   MOV     A,$0381+X
0967 D5 60 03   MOV     $0360+X,A
096A F5 B1 02   MOV     A,$02B1+X
096D 5C         LSR     A
096E E8 00      MOV     A,#$00
0970 7C         ROR     A
0971 D5 A0 02   MOV     $02A0+X,A
0974 E8 00      MOV     A,#$00
0976 D4 B0      MOV     $B0+X,A
0978 D5 00 01   MOV     $0100+X,A
097B D5 D0 02   MOV     $02D0+X,A
097E D4 C0      MOV     $C0+X,A
0980 09 47 5E   OR      $5E,$47		; set vol chg flag
0983 09 47 45   OR      $45,$47		; key on shadow
0986 F5 80 02   MOV     A,$0280+X
0989 D4 A0      MOV     $A0+X,A		; portamento counter?
098B F0 1E      BEQ     $09AB
098D F5 81 02   MOV     A,$0281+X
0990 D4 A1      MOV     $A1+X,A
0992 F5 90 02   MOV     A,$0290+X
0995 D0 0A      BNE     $09A1
0997 F5 61 03   MOV     A,$0361+X
099A 80         SETC
099B B5 91 02   SBC     A,$0291+X
099E D5 61 03   MOV     $0361+X,A
09A1 F5 91 02   MOV     A,$0291+X
09A4 60         CLRC
09A5 95 61 03   ADC     A,$0361+X
09A8 3F AA 0E   CALL    $0EAA
09AB 3F C2 0E   CALL    $0EC2
09AE 8D 00      MOV     Y,#$00
09B0 E4 11      MOV     A,$11
09B2 80         SETC
09B3 A8 34      SBC     A,#$34
09B5 B0 09      BCS     $09C0
09B7 E4 11      MOV     A,$11
09B9 80         SETC
09BA A8 13      SBC     A,#$13
09BC B0 06      BCS     $09C4
09BE DC         DEC     Y
09BF 1C         ASL     A
09C0 7A 10      ADDW    YA,$10
09C2 DA 10      MOVW    $10,YA
09C4 4D         PUSH    X
09C5 E4 11      MOV     A,$11
09C7 1C         ASL     A
09C8 8D 00      MOV     Y,#$00
09CA CD 18      MOV     X,#$18
09CC 9E         DIV     YA,X
09CD 5D         MOV     X,A
09CE F6 B8 11   MOV     A,$11B8+Y
09D1 C4 15      MOV     $15,A
09D3 F6 B7 11   MOV     A,$11B7+Y
09D6 C4 14      MOV     $14,A		; set $14/5 from pitch table
09D8 F6 BA 11   MOV     A,$11BA+Y
09DB 2D         PUSH    A
09DC F6 B9 11   MOV     A,$11B9+Y
09DF EE         POP     Y
09E0 9A 14      SUBW    YA,$14
09E2 EB 10      MOV     Y,$10
09E4 CF         MUL     YA
09E5 DD         MOV     A,Y
09E6 8D 00      MOV     Y,#$00
09E8 7A 14      ADDW    YA,$14
09EA CB 15      MOV     $15,Y
09EC 1C         ASL     A
09ED 2B 15      ROL     $15
09EF C4 14      MOV     $14,A
09F1 2F 04      BRA     $09F7
09F3 4B 15      LSR     $15
09F5 7C         ROR     A
09F6 3D         INC     X
09F7 C8 06      CMP     X,#$06
09F9 D0 F8      BNE     $09F3
09FB C4 14      MOV     $14,A
09FD CE         POP     X
09FE F5 20 02   MOV     A,$0220+X
0A01 EB 15      MOV     Y,$15
0A03 CF         MUL     YA
0A04 DA 16      MOVW    $16,YA
0A06 F5 20 02   MOV     A,$0220+X
0A09 EB 14      MOV     Y,$14
0A0B CF         MUL     YA
0A0C 6D         PUSH    Y
0A0D F5 21 02   MOV     A,$0221+X
0A10 EB 14      MOV     Y,$14
0A12 CF         MUL     YA
0A13 7A 16      ADDW    YA,$16
0A15 DA 16      MOVW    $16,YA
0A17 F5 21 02   MOV     A,$0221+X
0A1A EB 15      MOV     Y,$15
0A1C CF         MUL     YA
0A1D FD         MOV     Y,A
0A1E AE         POP     A
0A1F 7A 16      ADDW    YA,$16
0A21 DA 16      MOVW    $16,YA
0A23 7D         MOV     A,X
0A24 9F         XCN     A
0A25 5C         LSR     A
0A26 08 02      OR      A,#$02
0A28 FD         MOV     Y,A
0A29 E4 16      MOV     A,$16
0A2B 3F 31 0A   CALL    $0A31
0A2E FC         INC     Y
0A2F E4 17      MOV     A,$17
0A31 2D         PUSH    A
0A32 E4 47      MOV     A,$47
0A34 24 1C      AND     A,$1C
0A36 AE         POP     A
0A37 D0 06      BNE     $0A3F
; set DSP reg Y to A
0A39 CC F2 00   MOV     $00F2,Y
0A3C C5 F3 00   MOV     $00F3,A
0A3F 6F         RET
;
0A40 78 11 04   CMP     $04,#$11
0A43 F0 10      BEQ     $0A55
0A45 E4 1D      MOV     A,$1D
0A47 F0 0B      BEQ     $0A54
0A49 8F 00 1D   MOV     $1D,#$00
0A4C 92 1C      CLR1    $1C.#4
0A4E 82 46      SET1    $46.#4
0A50 72 1C      CLR1    $1C.#3
0A52 62 46      SET1    $46.#3
0A54 6F         RET
0A55 E4 1D      MOV     A,$1D
0A57 D0 32      BNE     $0A8B
0A59 62 1C      SET1    $1C.#3
0A5B CD 0C      MOV     X,#$0C
0A5D 8D 34      MOV     Y,#$34
0A5F 3F D2 17   CALL    $17D2
0A62 8D 87      MOV     Y,#$87
0A64 E8 00      MOV     A,#$00
0A66 DA 10      MOVW    $10,YA
0A68 E8 2A      MOV     A,#$2A
0A6A 8D 30      MOV     Y,#$30
0A6C 3F 39 0A   CALL    $0A39
0A6F FC         INC     Y
0A70 3F 39 0A   CALL    $0A39
0A73 72 47      CLR1    $47.#3
0A75 CD 06      MOV     X,#$06
0A77 3F C4 09   CALL    $09C4
0A7A 62 45      SET1    $45.#3
0A7C 8F FF 1D   MOV     $1D,#$FF
0A7F 82 1C      SET1    $1C.#4
0A81 CD 28      MOV     X,#$28
0A83 8D 44      MOV     Y,#$44
0A85 3F D2 17   CALL    $17D2
0A88 82 46      SET1    $46.#4
0A8A 6F         RET
0A8B 78 FE 1D   CMP     $1D,#$FE
0A8E D0 1A      BNE     $0AAA
0A90 8D 8C      MOV     Y,#$8C
0A92 E8 00      MOV     A,#$00
0A94 DA 10      MOVW    $10,YA
0A96 E8 30      MOV     A,#$30
0A98 8D 40      MOV     Y,#$40
0A9A 3F 39 0A   CALL    $0A39
0A9D FC         INC     Y
0A9E 3F 39 0A   CALL    $0A39
0AA1 92 47      CLR1    $47.#4
0AA3 CD 08      MOV     X,#$08
0AA5 3F C4 09   CALL    $09C4
0AA8 82 45      SET1    $45.#4
0AAA 78 7D 1D   CMP     $1D,#$7D
0AAD D0 18      BNE     $0AC7
0AAF 8D 8C      MOV     Y,#$8C
0AB1 E8 00      MOV     A,#$00
0AB3 DA 10      MOVW    $10,YA
0AB5 E8 3A      MOV     A,#$3A
0AB7 8D 40      MOV     Y,#$40
0AB9 3F 39 0A   CALL    $0A39
0ABC FC         INC     Y
0ABD 3F 39 0A   CALL    $0A39
0AC0 92 47      CLR1    $47.#4
0AC2 CD 08      MOV     X,#$08
0AC4 3F C4 09   CALL    $09C4
0AC7 78 7E 1D   CMP     $1D,#$7E
0ACA D0 02      BNE     $0ACE
0ACC 82 46      SET1    $46.#4
0ACE 8B 1D      DEC     $1D
0AD0 F0 AA      BEQ     $0A7C
0AD2 6F         RET
; read next word at $40
0AD3 8D 00      MOV     Y,#$00
0AD5 F7 40      MOV     A,[$40]+Y
0AD7 3A 40      INCW    $40
0AD9 2D         PUSH    A
0ADA F7 40      MOV     A,[$40]+Y
0ADC 3A 40      INCW    $40
0ADE FD         MOV     Y,A
0ADF AE         POP     A
0AE0 6F         RET
;
0AE1 3F D1 11   CALL    $11D1
0AE4 C4 08      MOV     $08,A
0AE6 68 06      CMP     A,#$06
0AE8 D0 03      BNE     $0AED
0AEA E5 FE 07   MOV     A,$07FE
0AED C4 04      MOV     $04,A
0AEF 1C         ASL     A
0AF0 5D         MOV     X,A
0AF1 F5 D7 1F   MOV     A,$1FD7+X
0AF4 FD         MOV     Y,A
0AF5 F5 D6 1F   MOV     A,$1FD6+X
0AF8 DA 40      MOVW    $40,YA
0AFA 8F 02 0C   MOV     $0C,#$02
0AFD E4 1C      MOV     A,$1C
0AFF 48 FF      EOR     A,#$FF
0B01 0E 46 00   TSET1   $0046
0B04 6F         RET
;
0B05 CD 0E      MOV     X,#$0E		; foreach voice
0B07 8F 80 47   MOV     $47,#$80
0B0A E8 FF      MOV     A,#$FF
0B0C D5 01 03   MOV     $0301+X,A		; voice volume = FF
0B0F E8 0A      MOV     A,#$0A
0B11 3F D2 0C   CALL    $0CD2			; pan = 0A.00
0B14 D5 81 03   MOV     $0381+X,A
0B17 D5 F0 02   MOV     $02F0+X,A		; zero per-voice transpose
0B1A D5 80 02   MOV     $0280+X,A
0B1D D5 11 02   MOV     $0211+X,A		; zero instrument
0B20 D4 B1      MOV     $B1+X,A
0B22 D4 C1      MOV     $C1+X,A
0B24 1D         DEC     X
0B25 1D         DEC     X
0B26 4B 47      LSR     $47
0B28 D0 E0      BNE     $0B0A		; next voice
0B2A C4 5A      MOV     $5A,A		; zero master vol fade counter
0B2C C4 68      MOV     $68,A		; zero echo vol fade counter
0B2E C4 54      MOV     $54,A		; zero tempo fade counter
0B30 C4 50      MOV     $50,A		; zero global transpose
0B32 C4 5F      MOV     $5F,A		; zero perc patch base
0B34 8F C0 59   MOV     $59,#$C0	; master vol = $C0
0B37 8F 20 53   MOV     $53,#$20	; tempo = $20
0B3A 6F         RET
;
0B3B EB 08      MOV     Y,$08
0B3D E4 00      MOV     A,$00
0B3F C4 08      MOV     $08,A
0B41 7E 00      CMP     Y,$00
0B43 D0 A1      BNE     $0AE6
0B45 E4 04      MOV     A,$04
0B47 F0 F1      BEQ     $0B3A
0B49 E4 0C      MOV     A,$0C
0B4B F0 4A      BEQ     $0B97
0B4D 6E 0C B5   DBNZ    $0C,$0B05
0B50 3F D3 0A   CALL    $0AD3		; read next word at $40
0B53 D0 14      BNE     $0B69
0B55 FD         MOV     Y,A
0B56 F0 8E      BEQ     $0AE6
0B58 8B 42      DEC     $42
0B5A 10 02      BPL     $0B5E
0B5C C4 42      MOV     $42,A
0B5E 3F D3 0A   CALL    $0AD3		; read next word at $40
0B61 F8 42      MOV     X,$42
0B63 F0 EB      BEQ     $0B50
0B65 DA 40      MOVW    $40,YA
0B67 2F E7      BRA     $0B50
0B69 DA 16      MOVW    $16,YA		; high byte not zero: save in $16/7
0B6B 8D 0F      MOV     Y,#$0F
0B6D F7 16      MOV     A,[$16]+Y
0B6F D6 30 00   MOV     $0030+Y,A
0B72 DC         DEC     Y
0B73 10 F8      BPL     $0B6D		; set vptrs from [$16]
0B75 CD 00      MOV     X,#$00		; foreach voice
0B77 8F 01 47   MOV     $47,#$01
0B7A F4 31      MOV     A,$31+X
0B7C F0 08      BEQ     $0B86		;  next if vptr hi = 0
0B7E F5 11 02   MOV     A,$0211+X	;  instrument
0B81 D0 03      BNE     $0B86
0B83 3F 79 0C   CALL    $0C79		;  set patch to zero if not set
0B86 E8 00      MOV     A,#$00
0B88 D4 80      MOV     $80+X,A		;  zero subroutine rpt counter
0B8A D4 90      MOV     $90+X,A		;  zero voice vol fade counter
0B8C D4 91      MOV     $91+X,A		;  zero pan fade counter
0B8E BC         INC     A
0B8F D4 70      MOV     $70+X,A		;  set dur ctr to 1
0B91 3D         INC     X
0B92 3D         INC     X
0B93 0B 47      ASL     $47
0B95 D0 E3      BNE     $0B7A		; next voice
0B97 CD 00      MOV     X,#$00		; foreach voice
0B99 D8 5E      MOV     $5E,X
0B9B 8F 01 47   MOV     $47,#$01
0B9E D8 44      MOV     $44,X
0BA0 F4 31      MOV     A,$31+X
0BA2 F0 66      BEQ     $0C0A		; next if vptr hi zero
0BA4 9B 70      DEC     $70+X		; dec duration ctr
0BA6 D0 5C      BNE     $0C04		; skip to readahead if not zero
0BA8 3F 6F 0C   CALL    $0C6F		; get next vbyte
0BAB D0 17      BNE     $0BC4
0BAD F4 80      MOV     A,$80+X		; vcmd 00:  end repeat/return
0BAF F0 9F      BEQ     $0B50
0BB1 3F C0 0D   CALL    $0DC0
0BB4 9B 80      DEC     $80+X
0BB6 D0 F0      BNE     $0BA8
0BB8 F5 30 02   MOV     A,$0230+X
0BBB D4 30      MOV     $30+X,A
0BBD F5 31 02   MOV     A,$0231+X
0BC0 D4 31      MOV     $31+X,A
0BC2 2F E4      BRA     $0BA8
0BC4 30 20      BMI     $0BE6		; vcmds 01-7F:
0BC6 D5 00 02   MOV     $0200+X,A	;  set cmd as duration
0BC9 3F 6F 0C   CALL    $0C6F		;  get next vbyte
0BCC 30 18      BMI     $0BE6		;  if not note then
0BCE 2D         PUSH    A
0BCF 9F         XCN     A
0BD0 28 07      AND     A,#$07
0BD2 FD         MOV     Y,A
0BD3 F6 00 05   MOV     A,$0500+Y
0BD6 D5 01 02   MOV     $0201+X,A	;   set dur% from hi nybble
0BD9 AE         POP     A
0BDA 28 0F      AND     A,#$0F
0BDC FD         MOV     Y,A
0BDD F6 08 05   MOV     A,$0508+Y	;   set per-note vol from lo nybble
0BE0 D5 10 02   MOV     $0210+X,A
0BE3 3F 6F 0C   CALL    $0C6F		; get next vbyte
0BE6 68 E0      CMP     A,#$E0
0BE8 90 05      BCC     $0BEF		; vcmd E0-FF:
0BEA 3F 5D 0C   CALL    $0C5D		;  dispatch vcmd
0BED 2F B9      BRA     $0BA8		;  do next vcmd
0BEF 3F 3F 09   CALL    $093F		; vmd 80-DF: (note)
0BF2 F5 00 02   MOV     A,$0200+X
0BF5 D4 70      MOV     $70+X,A		; duration counter
0BF7 FD         MOV     Y,A
0BF8 F5 01 02   MOV     A,$0201+X
0BFB CF         MUL     YA			;  * dur%
0BFC DD         MOV     A,Y
0BFD D0 01      BNE     $0C00
0BFF BC         INC     A
0C00 D4 71      MOV     $71+X,A		; set actual key-off dur counter
0C02 2F 03      BRA     $0C07
0C04 3F F1 0F   CALL    $0FF1		; do readahead
0C07 3F 8A 0E   CALL    $0E8A
0C0A 3D         INC     X
0C0B 3D         INC     X
0C0C 0B 47      ASL     $47
0C0E D0 8E      BNE     $0B9E		; next voice
0C10 E4 54      MOV     A,$54		; tempo fade counter
0C12 F0 0B      BEQ     $0C1F
0C14 BA 56      MOVW    YA,$56
0C16 7A 52      ADDW    YA,$52		; add tempo fade to tempo
0C18 6E 54 02   DBNZ    $54,$0C1D
0C1B BA 54      MOVW    YA,$54		; last time: move tempo target to tempo
0C1D DA 52      MOVW    $52,YA
0C1F E4 68      MOV     A,$68		; echo vol fade counter
0C21 F0 15      BEQ     $0C38
0C23 BA 64      MOVW    YA,$64
0C25 7A 60      ADDW    YA,$60
0C27 DA 60      MOVW    $60,YA		; add echo L delta to echo L vol
0C29 BA 66      MOVW    YA,$66
0C2B 7A 62      ADDW    YA,$62		; add echo R delta to echo R vol
0C2D 6E 68 06   DBNZ    $68,$0C36
0C30 BA 68      MOVW    YA,$68
0C32 DA 60      MOVW    $60,YA
0C34 EB 6A      MOV     Y,$6A
0C36 DA 62      MOVW    $62,YA
0C38 E4 5A      MOV     A,$5A		; master vol fade counter
0C3A F0 0E      BEQ     $0C4A
0C3C BA 5C      MOVW    YA,$5C
0C3E 7A 58      ADDW    YA,$58		; add master vol delta to value
0C40 6E 5A 02   DBNZ    $5A,$0C45
0C43 BA 5A      MOVW    YA,$5A
0C45 DA 58      MOVW    $58,YA
0C47 8F FF 5E   MOV     $5E,#$FF	; all voices vol chgd
0C4A CD 00      MOV     X,#$00		; foreach voice
0C4C 8F 01 47   MOV     $47,#$01
0C4F F4 31      MOV     A,$31+X
0C51 F0 03      BEQ     $0C56
0C53 3F 3A 0F   CALL    $0F3A		; do per-voice fades
0C56 3D         INC     X
0C57 3D         INC     X
0C58 0B 47      ASL     $47
0C5A D0 F3      BNE     $0C4F		; next voice
0C5C 6F         RET
; dispatch vcmd
0C5D 1C         ASL     A
0C5E FD         MOV     Y,A
0C5F F6 2A 0E   MOV     A,$0E2A+Y	; vcmd dispatch table
0C62 2D         PUSH    A
0C63 F6 29 0E   MOV     A,$0E29+Y
0C66 2D         PUSH    A
0C67 DD         MOV     A,Y
0C68 5C         LSR     A
0C69 FD         MOV     Y,A
0C6A F6 BF 0E   MOV     A,$0EBF+Y	; oplen table
0C6D F0 08      BEQ     $0C77		; get first operand if oplen > 0
; get next byte into A, Y
0C6F E7 30      MOV     A,[$30+X]
0C71 BB 30      INC     $30+X
0C73 D0 02      BNE     $0C77
0C75 BB 31      INC     $31+X
0C77 FD         MOV     Y,A
0C78 6F         RET
; vcmd E0 - set patch
0C79 D5 11 02   MOV     $0211+X,A
0C7C FD         MOV     Y,A
0C7D 10 06      BPL     $0C85
0C7F 80         SETC
0C80 A8 CA      SBC     A,#$CA
0C82 60         CLRC
0C83 84 5F      ADC     A,$5F
0C85 8D 06      MOV     Y,#$06
0C87 CF         MUL     YA
0C88 DA 14      MOVW    $14,YA
0C8A 60         CLRC
0C8B 98 18 14   ADC     $14,#$18
0C8E 98 05 15   ADC     $15,#$05
0C91 E4 1C      MOV     A,$1C
0C93 24 47      AND     A,$47
0C95 D0 3A      BNE     $0CD1
0C97 4D         PUSH    X
0C98 7D         MOV     A,X
0C99 9F         XCN     A
0C9A 5C         LSR     A
0C9B 08 04      OR      A,#$04
0C9D 5D         MOV     X,A
0C9E 8D 00      MOV     Y,#$00
0CA0 F7 14      MOV     A,[$14]+Y
0CA2 10 0E      BPL     $0CB2
0CA4 28 1F      AND     A,#$1F		; sample > 80: noise, freq in low bits
0CA6 38 20 48   AND     $48,#$20	;  keep echo bit from FLG
0CA9 0E 48 00   TSET1   $0048		;  OR in noise freq
0CAC 09 47 49   OR      $49,$47		;  set vbit in noise enable
0CAF DD         MOV     A,Y			;  set SRCN to 0
0CB0 2F 07      BRA     $0CB9		; else
0CB2 E4 47      MOV     A,$47
0CB4 4E 49 00   TCLR1   $0049		;  clear noise vbit
0CB7 F7 14      MOV     A,[$14]+Y	;  set SRCN from table
0CB9 C9 F2 00   MOV     $00F2,X
0CBC C5 F3 00   MOV     $00F3,A
0CBF 3D         INC     X
0CC0 FC         INC     Y
0CC1 AD 04      CMP     Y,#$04
0CC3 D0 F2      BNE     $0CB7		; set SRCN, ADSR1/2, GAIN from table
0CC5 CE         POP     X
0CC6 F7 14      MOV     A,[$14]+Y
0CC8 D5 21 02   MOV     $0221+X,A
0CCB FC         INC     Y
0CCC F7 14      MOV     A,[$14]+Y
0CCE D5 20 02   MOV     $0220+X,A
0CD1 6F         RET
; vcmd E1 - pan?
0CD2 D5 51 03   MOV     $0351+X,A
0CD5 28 1F      AND     A,#$1F
0CD7 D5 31 03   MOV     $0331+X,A
0CDA E8 00      MOV     A,#$00
0CDC D5 30 03   MOV     $0330+X,A
0CDF 6F         RET
; vcmd E2 - pan fade?
0CE0 D4 91      MOV     $91+X,A
0CE2 2D         PUSH    A
0CE3 3F 6F 0C   CALL    $0C6F
0CE6 D5 50 03   MOV     $0350+X,A
0CE9 80         SETC
0CEA B5 31 03   SBC     A,$0331+X
0CED CE         POP     X
0CEE 3F CD 0E   CALL    $0ECD
0CF1 D5 40 03   MOV     $0340+X,A
0CF4 DD         MOV     A,Y
0CF5 D5 41 03   MOV     $0341+X,A
0CF8 6F         RET
; vcmd E3
0CF9 D5 B0 02   MOV     $02B0+X,A
0CFC 3F 6F 0C   CALL    $0C6F
0CFF D5 A1 02   MOV     $02A1+X,A
0D02 3F 6F 0C   CALL    $0C6F
; vcmd E4
0D05 D4 B1      MOV     $B1+X,A
0D07 D5 C1 02   MOV     $02C1+X,A
0D0A E8 00      MOV     A,#$00
0D0C D5 B1 02   MOV     $02B1+X,A
0D0F 6F         RET
; vcmd F0
0D10 D5 B1 02   MOV     $02B1+X,A
0D13 2D         PUSH    A
0D14 8D 00      MOV     Y,#$00
0D16 F4 B1      MOV     A,$B1+X
0D18 CE         POP     X
0D19 9E         DIV     YA,X
0D1A F8 44      MOV     X,$44
0D1C D5 C0 02   MOV     $02C0+X,A
0D1F 6F         RET
; vcmd E5 - master vol
0D20 E8 00      MOV     A,#$00
0D22 DA 58      MOVW    $58,YA
0D24 6F         RET
; vcmd E6 - master vol fade
0D25 C4 5A      MOV     $5A,A
0D27 3F 6F 0C   CALL    $0C6F
0D2A C4 5B      MOV     $5B,A
0D2C 80         SETC
0D2D A4 59      SBC     A,$59
0D2F F8 5A      MOV     X,$5A
0D31 3F CD 0E   CALL    $0ECD
0D34 DA 5C      MOVW    $5C,YA
0D36 6F         RET
; vcmd E7 - tempo
0D37 E8 00      MOV     A,#$00
0D39 DA 52      MOVW    $52,YA
0D3B 6F         RET
; vcmd E8 - tempo fade
0D3C C4 54      MOV     $54,A
0D3E 3F 6F 0C   CALL    $0C6F
0D41 C4 55      MOV     $55,A
0D43 80         SETC
0D44 A4 53      SBC     A,$53
0D46 F8 54      MOV     X,$54
0D48 3F CD 0E   CALL    $0ECD
0D4B DA 56      MOVW    $56,YA
0D4D 6F         RET
; vcmd E9 - global transpose
0D4E C4 50      MOV     $50,A
0D50 6F         RET
; vcmd EA - per-voice transpose
0D51 D5 F0 02   MOV     $02F0+X,A
0D54 6F         RET
; vcmd EB
0D55 D5 E0 02   MOV     $02E0+X,A
0D58 3F 6F 0C   CALL    $0C6F
0D5B D5 D1 02   MOV     $02D1+X,A
0D5E 3F 6F 0C   CALL    $0C6F
; vcmd EC
0D61 D4 C1      MOV     $C1+X,A
0D63 6F         RET
; vcmd F1
0D64 E8 01      MOV     A,#$01
0D66 2F 02      BRA     $0D6A
; vcmd F2
0D68 E8 00      MOV     A,#$00
0D6A D5 90 02   MOV     $0290+X,A
0D6D DD         MOV     A,Y
0D6E D5 81 02   MOV     $0281+X,A
0D71 3F 6F 0C   CALL    $0C6F
0D74 D5 80 02   MOV     $0280+X,A
0D77 3F 6F 0C   CALL    $0C6F
0D7A D5 91 02   MOV     $0291+X,A
0D7D 6F         RET
; vcmd F3
0D7E D5 80 02   MOV     $0280+X,A
0D81 6F         RET
; vcmd ED - voice volume
0D82 D5 01 03   MOV     $0301+X,A
0D85 E8 00      MOV     A,#$00
0D87 D5 00 03   MOV     $0300+X,A
0D8A 6F         RET
; vcmd EE - fade voice volume
0D8B D4 90      MOV     $90+X,A
0D8D 2D         PUSH    A
0D8E 3F 6F 0C   CALL    $0C6F
0D91 D5 20 03   MOV     $0320+X,A
0D94 80         SETC
0D95 B5 01 03   SBC     A,$0301+X
0D98 CE         POP     X
0D99 3F CD 0E   CALL    $0ECD
0D9C D5 10 03   MOV     $0310+X,A
0D9F DD         MOV     A,Y
0DA0 D5 11 03   MOV     $0311+X,A
0DA3 6F         RET
; vcmd F4
0DA4 D5 81 03   MOV     $0381+X,A
0DA7 6F         RET
; vcmd EF - call subroutine
0DA8 D5 40 02   MOV     $0240+X,A
0DAB 3F 6F 0C   CALL    $0C6F
0DAE D5 41 02   MOV     $0241+X,A
0DB1 3F 6F 0C   CALL    $0C6F
0DB4 D4 80      MOV     $80+X,A
0DB6 F4 30      MOV     A,$30+X
0DB8 D5 30 02   MOV     $0230+X,A
0DBB F4 31      MOV     A,$31+X
0DBD D5 31 02   MOV     $0231+X,A
0DC0 F5 40 02   MOV     A,$0240+X
0DC3 D4 30      MOV     $30+X,A
0DC5 F5 41 02   MOV     A,$0241+X
0DC8 D4 31      MOV     $31+X,A
0DCA 6F         RET
; vcmd F5 - set echo vbits, vol
0DCB E3 D4 05   BBS     $D4,#7,$0DD3
0DCE C4 4F      MOV     $4F,A			; set new echo vbits
0DD0 C5 A2 03   MOV     $03A2,A
0DD3 3F 6F 0C   CALL    $0C6F
0DD6 E3 D4 07   BBS     $D4,#7,$0DE0
0DD9 E8 00      MOV     A,#$00
0DDB DA 60      MOVW    $60,YA			; echo vol L shadow
0DDD CC A1 03   MOV     $03A1,Y
0DE0 3F 6F 0C   CALL    $0C6F
0DE3 E3 D4 04   BBS     $D4,#7,$0DEA
0DE6 E8 00      MOV     A,#$00
0DE8 DA 62      MOVW    $62,YA			; echo vol R shadow
0DEA B2 48      CLR1    $48.#5			; enable echo write in FLG
0DEC 6F         RET
; vcmd F8 - echo volume fade
0DED C4 68      MOV     $68,A
0DEF 3F 6F 0C   CALL    $0C6F
0DF2 C4 69      MOV     $69,A
0DF4 80         SETC
0DF5 A4 61      SBC     A,$61
0DF7 F8 68      MOV     X,$68
0DF9 3F CD 0E   CALL    $0ECD
0DFC DA 64      MOVW    $64,YA
0DFE 3F 6F 0C   CALL    $0C6F
0E01 C4 6A      MOV     $6A,A
0E03 80         SETC
0E04 A4 63      SBC     A,$63
0E06 F8 68      MOV     X,$68
0E08 3F CD 0E   CALL    $0ECD
0E0B DA 66      MOVW    $66,YA
0E0D 6F         RET
; vcmd F6 - disable echo
0E0E DA 60      MOVW    $60,YA		; zero echo vol L
0E10 DA 62      MOVW    $62,YA		; zero echo vol R
0E12 CC A1 03   MOV     $03A1,Y
0E15 A2 48      SET1    $48.#5		; disable echo write in FLG
0E17 6F         RET
; vcmd F7 - set echo delay, feedback, filter
0E18 3F 3D 0E   CALL    $0E3D		; set echo delay from op1
0E1B 3F 6F 0C   CALL    $0C6F
0E1E C4 4E      MOV     $4E,A		; set echo feedback from op2
0E20 C5 A0 03   MOV     $03A0,A		; (and 3A0)
0E23 3F 6F 0C   CALL    $0C6F
0E26 8D 08      MOV     Y,#$08
0E28 CF         MUL     YA
0E29 5D         MOV     X,A
0E2A 8D 0F      MOV     Y,#$0F
0E2C F5 83 11   MOV     A,$1183+X	; filter table
0E2F 3F 39 0A   CALL    $0A39
0E32 3D         INC     X
0E33 DD         MOV     A,Y
0E34 60         CLRC
0E35 88 10      ADC     A,#$10
0E37 FD         MOV     Y,A
0E38 10 F2      BPL     $0E2C		; set filter from op3
0E3A F8 44      MOV     X,$44
0E3C 6F         RET
; set echo delay to A
0E3D C4 4D      MOV     $4D,A
0E3F 8D 7D      MOV     Y,#$7D
0E41 CC F2 00   MOV     $00F2,Y
0E44 E5 F3 00   MOV     A,$00F3		; read echo delay
0E47 64 4D      CMP     A,$4D
0E49 F0 2F      BEQ     $0E7A		; same as $4D?
0E4B 28 0F      AND     A,#$0F
0E4D 48 FF      EOR     A,#$FF
0E4F F3 4C 03   BBC     $4C,#7,$0E55
0E52 60         CLRC
0E53 84 4C      ADC     A,$4C
0E55 C4 4C      MOV     $4C,A
0E57 8D 04      MOV     Y,#$04
0E59 F6 A2 11   MOV     A,$11A2+Y	; shadow reg DSP reg table
0E5C C5 F2 00   MOV     $00F2,A
0E5F E8 00      MOV     A,#$00
0E61 C5 F3 00   MOV     $00F3,A
0E64 FE F3      DBNZ    Y,$0E59		; zero echo vol, feedback, vbit DSP regs
0E66 E4 48      MOV     A,$48
0E68 08 20      OR      A,#$20
0E6A 8D 6C      MOV     Y,#$6C
0E6C 3F 39 0A   CALL    $0A39		; set FLG from shadow but disable echo
0E6F E4 4D      MOV     A,$4D
0E71 AB 4D      INC     $4D
0E73 AB 4D      INC     $4D
0E75 8D 7D      MOV     Y,#$7D
0E77 3F 39 0A   CALL    $0A39		; set echo delay from $4D
0E7A 1C         ASL     A
0E7B 1C         ASL     A
0E7C 1C         ASL     A
0E7D 48 FF      EOR     A,#$FF
0E7F 80         SETC
0E80 88 F8      ADC     A,#$F8
0E82 8D 6D      MOV     Y,#$6D
0E84 5F 39 0A   JMP     $0A39		; set echo region to $f800-8*delay
; vcmd FA - set perc patch base
0E87 C4 5F      MOV     $5F,A
0E89 6F         RET
;
0E8A F4 A0      MOV     A,$A0+X
0E8C D0 33      BNE     $0EC1
0E8E E7 30      MOV     A,[$30+X]
0E90 68 F9      CMP     A,#$F9
0E92 D0 2D      BNE     $0EC1
0E94 3F 71 0C   CALL    $0C71
0E97 3F 6F 0C   CALL    $0C6F
; vcmd F9 - portamento?
0E9A D4 A1      MOV     $A1+X,A
0E9C 3F 6F 0C   CALL    $0C6F
0E9F D4 A0      MOV     $A0+X,A
0EA1 3F 6F 0C   CALL    $0C6F
0EA4 60         CLRC
0EA5 84 50      ADC     A,$50		; add global transpose
0EA7 95 F0 02   ADC     A,$02F0+X	; per-voice transpose
0EAA 28 7F      AND     A,#$7F
0EAC D5 80 03   MOV     $0380+X,A
0EAF 80         SETC
0EB0 B5 61 03   SBC     A,$0361+X	; current notenum
0EB3 FB A0      MOV     Y,$A0+X
0EB5 6D         PUSH    Y
0EB6 CE         POP     X
0EB7 3F CD 0E   CALL    $0ECD
0EBA D5 70 03   MOV     $0370+X,A
0EBD DD         MOV     A,Y
0EBE D5 71 03   MOV     $0371+X,A
0EC1 6F         RET
;
0EC2 F5 61 03   MOV     A,$0361+X
0EC5 C4 11      MOV     $11,A
0EC7 F5 60 03   MOV     A,$0360+X
0ECA C4 10      MOV     $10,A
0ECC 6F         RET
;
0ECD ED         NOTC
0ECE 6B 12      ROR     $12
0ED0 10 03      BPL     $0ED5
0ED2 48 FF      EOR     A,#$FF
0ED4 BC         INC     A
0ED5 8D 00      MOV     Y,#$00
0ED7 9E         DIV     YA,X
0ED8 2D         PUSH    A
0ED9 E8 00      MOV     A,#$00
0EDB 9E         DIV     YA,X
0EDC EE         POP     Y
0EDD F8 44      MOV     X,$44
0EDF F3 12 06   BBC     $12,#7,$0EE8
0EE2 DA 14      MOVW    $14,YA
0EE4 BA 0E      MOVW    YA,$0E
0EE6 9A 14      SUBW    YA,$14
0EE8 6F         RET
; vcmd dispatch table (0C5D)
0EE9 79 0C  ; E0 - set patch
0EEB D2 0C  ; E1 - pan
0EED E0 0C  ; E2 - pan fade
0EEF F9 0C  ; E3
0EF1 05 0D  ; E4
0EF3 20 0D  ; E5 - master vol
0EF5 25 0D  ; E6 - master vol fade
0EF7 37 0D  ; E7 - tempo
0EF9 3C 0D  ; E8 - tempo fade
0EFB 4E 0D  ; E9 - global transpose
0EFD 51 0D  ; EA - per-voice transpose
0EFF 55 0D  ; EB
0F01 61 0D  ; EC
0F03 82 0D  ; ED - voice volume
0F05 8B 0D  ; EE - voice volume fade
0F07 A8 0D  ; EF - call subroutine
0F09 10 0D  ; F0
0F0B 64 0D  ; F1
0F0D 68 0D  ; F2
0F0F 7E 0D  ; F3
0F11 A4 0D  ; F4
0F13 CB 0D  ; F5 - set echo vbits, volume
0F15 0E 0E  ; F6 - disable echo
0F17 18 0E  ; F7 - set echo delay, feedback, filter
0F19 ED 0D  ; F8 - echo volume fade
0F1B 9A 0E  ; F9 - portamento?
0F1D 87 0E  ; FA - set perc patch base
; oplens
0F1F 01 01 02 03  00 01 02 01  02 01 01 03  00 01 02 03
0F2F 01 03 03 00  01 03 00 03  03 03 01
;
0F3A F4 90      MOV     A,$90+X		; voice volume fade counter
0F3C F0 09      BEQ     $0F47
0F3E E8 00      MOV     A,#$00
0F40 8D 03      MOV     Y,#$03
0F42 9B 90      DEC     $90+X		; voice vol fade counter
0F44 3F CD 0F   CALL    $0FCD
0F47 FB C1      MOV     Y,$C1+X
0F49 F0 23      BEQ     $0F6E
0F4B F5 E0 02   MOV     A,$02E0+X
0F4E DE C0 1B   CBNE    $C0+X,$0F6C
0F51 09 47 5E   OR      $5E,$47
0F54 F5 D0 02   MOV     A,$02D0+X
0F57 10 07      BPL     $0F60
0F59 FC         INC     Y
0F5A D0 04      BNE     $0F60
0F5C E8 80      MOV     A,#$80
0F5E 2F 04      BRA     $0F64
0F60 60         CLRC
0F61 95 D1 02   ADC     A,$02D1+X
0F64 D5 D0 02   MOV     $02D0+X,A
0F67 3F 4E 11   CALL    $114E		; calculate volume
0F6A 2F 07      BRA     $0F73
0F6C BB C0      INC     $C0+X
0F6E E8 FF      MOV     A,#$FF
0F70 3F 59 11   CALL    $1159		; calculate volume
0F73 F4 91      MOV     A,$91+X		; pan fade counter
0F75 F0 09      BEQ     $0F80
0F77 E8 30      MOV     A,#$30
0F79 8D 03      MOV     Y,#$03
0F7B 9B 91      DEC     $91+X
0F7D 3F CD 0F   CALL    $0FCD
0F80 E4 47      MOV     A,$47
0F82 24 5E      AND     A,$5E
0F84 F0 46      BEQ     $0FCC
0F86 F5 31 03   MOV     A,$0331+X
0F89 FD         MOV     Y,A
0F8A F5 30 03   MOV     A,$0330+X
0F8D DA 10      MOVW    $10,YA		; set 10/11 from pan
;
0F8F 7D         MOV     A,X
0F90 9F         XCN     A
0F91 5C         LSR     A
0F92 C4 12      MOV     $12,A		; $12 = voice vol L DSP reg
0F94 EB 11      MOV     Y,$11
0F96 F6 6F 11   MOV     A,$116F+Y	; pan table?
0F99 80         SETC
0F9A B6 6E 11   SBC     A,$116E+Y
0F9D EB 10      MOV     Y,$10
0F9F CF         MUL     YA
0FA0 DD         MOV     A,Y
0FA1 EB 11      MOV     Y,$11
0FA3 60         CLRC
0FA4 96 6E 11   ADC     A,$116E+Y
0FA7 FD         MOV     Y,A
0FA8 F5 21 03   MOV     A,$0321+X
0FAB CF         MUL     YA
0FAC F5 51 03   MOV     A,$0351+X
0FAF 1C         ASL     A
0FB0 13 12 01   BBC     $12,#0,$0FB4
0FB3 1C         ASL     A
0FB4 DD         MOV     A,Y
0FB5 90 03      BCC     $0FBA
0FB7 48 FF      EOR     A,#$FF
0FB9 BC         INC     A
0FBA EB 12      MOV     Y,$12
0FBC 3F 31 0A   CALL    $0A31
0FBF 8D 14      MOV     Y,#$14
0FC1 E8 00      MOV     A,#$00
0FC3 9A 10      SUBW    YA,$10
0FC5 DA 10      MOVW    $10,YA
0FC7 AB 12      INC     $12
0FC9 33 12 C8   BBC     $12,#1,$0F94
0FCC 6F         RET
; add voice vol or pan delta
0FCD 09 47 5E   OR      $5E,$47		; set vol chg flag
0FD0 DA 14      MOVW    $14,YA
0FD2 DA 16      MOVW    $16,YA
0FD4 4D         PUSH    X
0FD5 EE         POP     Y
0FD6 60         CLRC
0FD7 D0 0A      BNE     $0FE3
0FD9 98 1F 16   ADC     $16,#$1F
0FDC E8 00      MOV     A,#$00
0FDE D7 14      MOV     [$14]+Y,A
0FE0 FC         INC     Y
0FE1 2F 09      BRA     $0FEC
0FE3 98 10 16   ADC     $16,#$10
0FE6 3F EA 0F   CALL    $0FEA
0FE9 FC         INC     Y
0FEA F7 14      MOV     A,[$14]+Y
0FEC 97 16      ADC     A,[$16]+Y
0FEE D7 14      MOV     [$14]+Y,A
0FF0 6F         RET
; do readahead
0FF1 F4 71      MOV     A,$71+X
0FF3 F0 63      BEQ     $1058
0FF5 9B 71      DEC     $71+X
0FF7 F0 05      BEQ     $0FFE
0FF9 E8 02      MOV     A,#$02
0FFB DE 70 5A   CBNE    $70+X,$1058
0FFE F4 80      MOV     A,$80+X
1000 C4 17      MOV     $17,A
1002 F4 30      MOV     A,$30+X
1004 FB 31      MOV     Y,$31+X
1006 DA 14      MOVW    $14,YA
1008 8D 00      MOV     Y,#$00
100A F7 14      MOV     A,[$14]+Y
100C F0 1C      BEQ     $102A
100E 30 05      BMI     $1015
1010 FC         INC     Y
1011 F7 14      MOV     A,[$14]+Y
1013 10 FB      BPL     $1010
1015 68 C8      CMP     A,#$C8
1017 F0 3F      BEQ     $1058
1019 68 EF      CMP     A,#$EF
101B F0 29      BEQ     $1046
101D 68 E0      CMP     A,#$E0
101F 90 30      BCC     $1051
1021 6D         PUSH    Y
1022 FD         MOV     Y,A
1023 AE         POP     A
1024 96 3F 0E   ADC     A,$0E3F+Y
1027 FD         MOV     Y,A
1028 2F E0      BRA     $100A
102A E4 17      MOV     A,$17
102C F0 23      BEQ     $1051
102E 8B 17      DEC     $17
1030 D0 0A      BNE     $103C
1032 F5 31 02   MOV     A,$0231+X
1035 2D         PUSH    A
1036 F5 30 02   MOV     A,$0230+X
1039 EE         POP     Y
103A 2F CA      BRA     $1006
103C F5 41 02   MOV     A,$0241+X
103F 2D         PUSH    A
1040 F5 40 02   MOV     A,$0240+X
1043 EE         POP     Y
1044 2F C0      BRA     $1006
1046 FC         INC     Y
1047 F7 14      MOV     A,[$14]+Y
1049 2D         PUSH    A
104A FC         INC     Y
104B F7 14      MOV     A,[$14]+Y
104D FD         MOV     Y,A
104E AE         POP     A
104F 2F B5      BRA     $1006
1051 E4 47      MOV     A,$47
1053 8D 5C      MOV     Y,#$5C
1055 3F 31 0A   CALL    $0A31
1058 F2 13      CLR1    $13.#7
105A F4 A0      MOV     A,$A0+X
105C F0 13      BEQ     $1071
105E F4 A1      MOV     A,$A1+X
1060 F0 04      BEQ     $1066
1062 9B A1      DEC     $A1+X
1064 2F 0B      BRA     $1071
1066 E2 13      SET1    $13.#7
1068 E8 60      MOV     A,#$60
106A 8D 03      MOV     Y,#$03
106C 9B A0      DEC     $A0+X
106E 3F D0 0F   CALL    $0FD0
1071 3F C2 0E   CALL    $0EC2
1074 F4 B1      MOV     A,$B1+X
1076 F0 4C      BEQ     $10C4
1078 F5 B0 02   MOV     A,$02B0+X
107B DE B0 44   CBNE    $B0+X,$10C2
107E F5 00 01   MOV     A,$0100+X
1081 75 B1 02   CMP     A,$02B1+X
1084 D0 05      BNE     $108B
1086 F5 C1 02   MOV     A,$02C1+X
1089 2F 0D      BRA     $1098
108B 40         SETP
108C BB 00      INC     $00+X
108E 20         CLRP
108F FD         MOV     Y,A
1090 F0 02      BEQ     $1094
1092 F4 B1      MOV     A,$B1+X
1094 60         CLRC
1095 95 C0 02   ADC     A,$02C0+X
1098 D4 B1      MOV     $B1+X,A
109A F5 A0 02   MOV     A,$02A0+X
109D 60         CLRC
109E 95 A1 02   ADC     A,$02A1+X
10A1 D5 A0 02   MOV     $02A0+X,A
10A4 C4 12      MOV     $12,A
10A6 1C         ASL     A
10A7 1C         ASL     A
10A8 90 02      BCC     $10AC
10AA 48 FF      EOR     A,#$FF
10AC FD         MOV     Y,A
10AD F4 B1      MOV     A,$B1+X
10AF 68 F1      CMP     A,#$F1
10B1 90 05      BCC     $10B8
10B3 28 0F      AND     A,#$0F
10B5 CF         MUL     YA
10B6 2F 04      BRA     $10BC
10B8 CF         MUL     YA
10B9 DD         MOV     A,Y
10BA 8D 00      MOV     Y,#$00
10BC 3F 39 11   CALL    $1139
10BF 5F AE 09   JMP     $09AE
10C2 BB B0      INC     $B0+X
10C4 E3 13 F8   BBS     $13,#7,$10BF
10C7 6F         RET
10C8 F2 13      CLR1    $13.#7
10CA F4 C1      MOV     A,$C1+X
10CC F0 09      BEQ     $10D7
10CE F5 E0 02   MOV     A,$02E0+X
10D1 DE C0 03   CBNE    $C0+X,$10D7
10D4 3F 41 11   CALL    $1141
10D7 F5 31 03   MOV     A,$0331+X
10DA FD         MOV     Y,A
10DB F5 30 03   MOV     A,$0330+X
10DE DA 10      MOVW    $10,YA
10E0 F4 91      MOV     A,$91+X
10E2 F0 0A      BEQ     $10EE
10E4 F5 41 03   MOV     A,$0341+X
10E7 FD         MOV     Y,A
10E8 F5 40 03   MOV     A,$0340+X
10EB 3F 23 11   CALL    $1123
10EE F3 13 03   BBC     $13,#7,$10F4
10F1 3F 8F 0F   CALL    $0F8F
10F4 F2 13      CLR1    $13.#7
10F6 3F C2 0E   CALL    $0EC2
10F9 F4 A0      MOV     A,$A0+X
10FB F0 0E      BEQ     $110B
10FD F4 A1      MOV     A,$A1+X
10FF D0 0A      BNE     $110B
1101 F5 71 03   MOV     A,$0371+X
1104 FD         MOV     Y,A
1105 F5 70 03   MOV     A,$0370+X
1108 3F 23 11   CALL    $1123
110B F4 B1      MOV     A,$B1+X
110D F0 B5      BEQ     $10C4
110F F5 B0 02   MOV     A,$02B0+X
1112 DE B0 AF   CBNE    $B0+X,$10C4
1115 EB 51      MOV     Y,$51
1117 F5 A1 02   MOV     A,$02A1+X
111A CF         MUL     YA
111B DD         MOV     A,Y
111C 60         CLRC
111D 95 A0 02   ADC     A,$02A0+X
1120 5F A4 10   JMP     $10A4
;
1123 E2 13      SET1    $13.#7
1125 CB 12      MOV     $12,Y
1127 3F DF 0E   CALL    $0EDF
112A 6D         PUSH    Y
112B EB 51      MOV     Y,$51
112D CF         MUL     YA
112E CB 14      MOV     $14,Y
1130 8F 00 15   MOV     $15,#$00
1133 EB 51      MOV     Y,$51
1135 AE         POP     A
1136 CF         MUL     YA
1137 7A 14      ADDW    YA,$14
;
1139 3F DF 0E   CALL    $0EDF
113C 7A 10      ADDW    YA,$10
113E DA 10      MOVW    $10,YA
1140 6F         RET
;
1141 E2 13      SET1    $13.#7
1143 EB 51      MOV     Y,$51
1145 F5 D1 02   MOV     A,$02D1+X
1148 CF         MUL     YA
1149 DD         MOV     A,Y
114A 60         CLRC
114B 95 D0 02   ADC     A,$02D0+X
;
114E 1C         ASL     A
114F 90 02      BCC     $1153
1151 48 FF      EOR     A,#$FF
1153 FB C1      MOV     Y,$C1+X
1155 CF         MUL     YA
1156 DD         MOV     A,Y
1157 48 FF      EOR     A,#$FF
;
1159 EB 59      MOV     Y,$59		; master volume
115B CF         MUL     YA
115C E8 AE      MOV     A,#$AE
115E CF         MUL     YA
115F F5 10 02   MOV     A,$0210+X
1162 CF         MUL     YA
1163 F5 01 03   MOV     A,$0301+X
1166 CF         MUL     YA
1167 DD         MOV     A,Y
1168 CF         MUL     YA
1169 DD         MOV     A,Y
116A D5 21 03   MOV     $0321+X,A
116D 6F         RET
; pan table?
116E 00 01 03 07  0D 15 1E 29  34 42 51 5E  67 6E 73 77
117E 7A 7C 7D 7E  7F
; filter table?
1183 7F 00 00 00 00 00 00 00
118B 58 BF DB F0 FE 07 0C 0C
1193 0C 21 2B 2B 13 FE F3 F9
119B 34 33 00 D9 E5 01 FC EB
; shadow regs
11A3 2C 3C 0D 4D  6C 4C 5C 3D  2D 5C
11AD 61 63 4E 4A  48 45 0E 49  4B 46
; pitch table
11B7 5F 08
11B9 DE 08
11BB 65 09
11BD F4 09
11BF 8C 0A
11C1 2C 0B
11C3 D6 0B
11C5 8B 0C
11C7 4A 0D
11C9 14 0E
11CB EA 0E
11CD CD 0F
11CF BE 10
; do standardish SPC transfer
11D1 E8 AA		MOV		A,#$AA
11D3 C5 F4 00   MOV		$00F4,A
11D6 E8 BB      MOV     A,#$BB
11D8 C5 F5 00   MOV     $00F5,A
11DB E5 F4 00   MOV     A,$00F4
11DE 68 CC      CMP     A,#$CC
11E0 D0 F9      BNE     $11DB
11E2 2F 20      BRA     $1204
11E4 EC F4 00   MOV     Y,$00F4
11E7 D0 FB      BNE     $11E4
11E9 5E F4 00   CMP     Y,$00F4
11EC D0 0F      BNE     $11FD
11EE E5 F5 00   MOV     A,$00F5
11F1 CC F4 00   MOV     $00F4,Y
11F4 D7 14      MOV     [$14]+Y,A
11F6 FC         INC     Y
11F7 D0 F0      BNE     $11E9
11F9 AB 15      INC     $15
11FB 2F EC      BRA     $11E9
11FD 10 EA      BPL     $11E9
11FF 5E F4 00   CMP     Y,$00F4
1202 10 E5      BPL     $11E9
1204 E5 F6 00   MOV     A,$00F6
1207 EC F7 00   MOV     Y,$00F7
120A DA 14      MOVW    $14,YA
120C EC F4 00   MOV     Y,$00F4
120F E5 F5 00   MOV     A,$00F5
1212 CC F4 00   MOV     $00F4,Y
1215 D0 CD      BNE     $11E4
1217 CD 31      MOV     X,#$31
1219 C9 F1 00   MOV     $00F1,X		; reset ports, timer0 on
121C 6F         RET
;
121D E8 04      MOV     A,#$04
121F C5 AC 03   MOV     $03AC,A
1222 18 78 46   OR      $46,#$78	; key off all but voice 7
1225 6F         RET
;
1226 E5 AC 03   MOV     A,$03AC
1229 F0 77      BEQ     $12A2
122B 8C AC 03   DEC     $03AC
122E D0 F5      BNE     $1225
1230 B2 48      CLR1    $48.#5
1232 8F 79 4F   MOV     $4F,#$79
1235 18 78 45   OR      $45,#$78
1238 8F 00 47   MOV     $47,#$00
123B CD 06      MOV     X,#$06
123D 8D 34      MOV     Y,#$34
123F 3F D2 17   CALL    $17D2
1242 CD 06      MOV     X,#$06
1244 8D 44      MOV     Y,#$44
1246 3F D2 17   CALL    $17D2
1249 CD 06      MOV     X,#$06
124B 8D 54      MOV     Y,#$54
124D 3F D2 17   CALL    $17D2
1250 CD 06      MOV     X,#$06
1252 8D 64      MOV     Y,#$64
1254 3F D2 17   CALL    $17D2
1257 CD 06      MOV     X,#$06
1259 E8 00      MOV     A,#$00
125B D5 51 03   MOV     $0351+X,A
125E E8 63      MOV     A,#$63
1260 D5 21 03   MOV     $0321+X,A
1263 3D         INC     X
1264 3D         INC     X
1265 C8 0E      CMP     X,#$0E
1267 D0 F0      BNE     $1259
1269 CD 06      MOV     X,#$06
126B 8F 04 11   MOV     $11,#$04
126E 3F C4 09   CALL    $09C4
1271 8F 10 11   MOV     $11,#$10
1274 3F 8F 0F   CALL    $0F8F
1277 CD 08      MOV     X,#$08
1279 8F 0A 11   MOV     $11,#$0A
127C 3F C4 09   CALL    $09C4
127F 8F 0D 11   MOV     $11,#$0D
1282 3F 8F 0F   CALL    $0F8F
1285 CD 0A      MOV     X,#$0A
1287 8F 0E 11   MOV     $11,#$0E
128A 3F C4 09   CALL    $09C4
128D 8F 07 11   MOV     $11,#$07
1290 3F 8F 0F   CALL    $0F8F
1293 CD 0C      MOV     X,#$0C
1295 8F 14 11   MOV     $11,#$14
1298 3F C4 09   CALL    $09C4
129B 8F 04 11   MOV     $11,#$04
129E 3F 8F 0F   CALL    $0F8F
12A1 6F         RET
12A2 60         CLRC
12A3 98 07 D9   ADC     $D9,#$07
12A6 CD 06      MOV     X,#$06
12A8 E8 00      MOV     A,#$00
12AA D5 51 03   MOV     $0351+X,A
12AD E4 D9      MOV     A,$D9
12AF 10 02      BPL     $12B3
12B1 48 FF      EOR     A,#$FF
12B3 5C         LSR     A
12B4 5C         LSR     A
12B5 60         CLRC
12B6 88 4E      ADC     A,#$4E
12B8 D5 21 03   MOV     $0321+X,A
12BB 8F 10 11   MOV     $11,#$10
12BE 8F 00 10   MOV     $10,#$00
12C1 72 47      CLR1    $47.#3
12C3 3F 8F 0F   CALL    $0F8F
12C6 60         CLRC
12C7 98 0C E0   ADC     $E0,#$0C
12CA CD 0C      MOV     X,#$0C
12CC E8 00      MOV     A,#$00
12CE D5 51 03   MOV     $0351+X,A
12D1 E4 E0      MOV     A,$E0
12D3 10 02      BPL     $12D7
12D5 48 FF      EOR     A,#$FF
12D7 5C         LSR     A
12D8 5C         LSR     A
12D9 60         CLRC
12DA 88 4E      ADC     A,#$4E
12DC D5 21 03   MOV     $0321+X,A
12DF 8F 04 11   MOV     $11,#$04
12E2 8F 00 10   MOV     $10,#$00
12E5 D2 47      CLR1    $47.#6
12E7 3F 8F 0F   CALL    $0F8F
12EA 6F         RET
;
12EB E3 06 FC   BBS     $06,#7,$12EA
12EE 8F 00 47   MOV     $47,#$00
12F1 E5 F7 00   MOV     A,$00F7
12F4 65 F7 00   CMP     A,$00F7
12F7 D0 F8      BNE     $12F1
12F9 C5 F7 00   MOV     $00F7,A
12FC F8 07      MOV     X,$07
12FE 2D         PUSH    A
12FF 9F         XCN     A
1300 28 0F      AND     A,#$0F
1302 C4 07      MOV     $07,A
1304 EB 03      MOV     Y,$03
1306 AE         POP     A
1307 C8 0F      CMP     X,#$0F
1309 D0 08      BNE     $1313
130B 78 0F 07   CMP     $07,#$0F
130E D0 0E      BNE     $131E
1310 5F 26 12   JMP     $1226
1313 78 0F 07   CMP     $07,#$0F
1316 D0 0C      BNE     $1324
1318 18 78 1C   OR      $1C,#$78
131B 5F 1D 12   JMP     $121D
131E 38 87 1C   AND     $1C,#$87
1321 18 78 46   OR      $46,#$78
1324 28 0F      AND     A,#$0F
1326 C4 03      MOV     $03,A
1328 D0 45      BNE     $136F
132A E4 E1      MOV     A,$E1
132C F0 33      BEQ     $1361
132E 8B E1      DEC     $E1
1330 D0 27      BNE     $1359
1332 CD 0C      MOV     X,#$0C
1334 E5 A6 03   MOV     A,$03A6
1337 C5 2D 03   MOV     $032D,A
133A E5 A7 03   MOV     A,$03A7
133D C5 5D 03   MOV     $035D,A
1340 EC 31 03   MOV     Y,$0331
1343 E5 30 03   MOV     A,$0330
1346 DA 10      MOVW    $10,YA
1348 3F 8F 0F   CALL    $0F8F
134B E5 1D 02   MOV     A,$021D
134E 3F 7C 0C   CALL    $0C7C
1351 D2 1C      CLR1    $1C.#6
1353 73 D4 03   BBC     $D4,#3,$1359
1356 38 E0 1C   AND     $1C,#$E0
1359 C2 46      SET1    $46.#6
135B 73 D4 10   BBC     $D4,#3,$136E
135E 18 1F 46   OR      $46,#$1F
1361 E5 A9 03   MOV     A,$03A9
1364 F0 08      BEQ     $136E
1366 E8 00      MOV     A,#$00
1368 C5 A9 03   MOV     $03A9,A
136B 38 E0 1C   AND     $1C,#$E0
136E 6F         RET
136F DD         MOV     A,Y
1370 D0 1F      BNE     $1391
1372 CD 00      MOV     X,#$00
1374 D8 D9      MOV     $D9,X
1376 D8 E0      MOV     $E0,X
1378 E5 2D 03   MOV     A,$032D
137B C5 A6 03   MOV     $03A6,A
137E E5 5D 03   MOV     A,$035D
1381 C5 A7 03   MOV     $03A7,A
1384 CD 3A      MOV     X,#$3A
1386 8D 64      MOV     Y,#$64
1388 3F D2 17   CALL    $17D2
138B C2 1C      SET1    $1C.#6
138D C2 45      SET1    $45.#6
138F 2F 12      BRA     $13A3
1391 7E 03      CMP     Y,$03
1393 F0 0E      BEQ     $13A3
1395 CD 60      MOV     X,#$60
1397 D8 D9      MOV     $D9,X
1399 E4 03      MOV     A,$03
139B 80         SETC
139C A4 DB      SBC     A,$DB
139E 3F CD 0E   CALL    $0ECD
13A1 DA DC      MOVW    $DC,YA
13A3 EB 03      MOV     Y,$03
13A5 AD 06      CMP     Y,#$06
13A7 F0 06      BEQ     $13AF
13A9 90 08      BCC     $13B3
13AB 8D A8      MOV     Y,#$A8
13AD 2F 06      BRA     $13B5
13AF 8D 9F      MOV     Y,#$9F
13B1 2F 02      BRA     $13B5
13B3 8D 9A      MOV     Y,#$9A
13B5 E8 00      MOV     A,#$00
13B7 DA 10      MOVW    $10,YA
13B9 F8 D9      MOV     X,$D9
13BB F0 28      BEQ     $13E5
13BD 8B D9      DEC     $D9
13BF BA 0E      MOVW    YA,$0E
13C1 9A DC      SUBW    YA,$DC
13C3 CB 14      MOV     $14,Y
13C5 1C         ASL     A
13C6 2B 14      ROL     $14
13C8 1C         ASL     A
13C9 2B 14      ROL     $14
13CB F8 03      MOV     X,$03
13CD C8 06      CMP     X,#$06
13CF B0 08      BCS     $13D9
13D1 1C         ASL     A
13D2 2B 14      ROL     $14
13D4 48 FF      EOR     A,#$FF
13D6 58 FF 14   EOR     $14,#$FF
13D9 EB 14      MOV     Y,$14
13DB 7A 10      ADDW    YA,$10
13DD DA 10      MOVW    $10,YA
13DF BA DA      MOVW    YA,$DA
13E1 7A DC      ADDW    YA,$DC
13E3 2F 04      BRA     $13E9
13E5 EB 03      MOV     Y,$03
13E7 E8 00      MOV     A,#$00
13E9 DA DA      MOVW    $DA,YA
13EB E4 E0      MOV     A,$E0
13ED D0 06      BNE     $13F5
13EF BA 10      MOVW    YA,$10
13F1 DA DE      MOVW    $DE,YA
13F3 2F 22      BRA     $1417
13F5 68 06      CMP     A,#$06
13F7 D0 1A      BNE     $1413
13F9 8F 00 E0   MOV     $E0,#$00
13FC BA 10      MOVW    YA,$10
13FE 9A DE      SUBW    YA,$DE
1400 DA 14      MOVW    $14,YA
1402 8D 04      MOV     Y,#$04
1404 E4 15      MOV     A,$15
1406 1C         ASL     A
1407 6B 15      ROR     $15
1409 6B 14      ROR     $14
140B FE F7      DBNZ    Y,$1404
140D BA DE      MOVW    YA,$DE
140F 7A 14      ADDW    YA,$14
1411 DA DE      MOVW    $DE,YA
1413 BA DE      MOVW    YA,$DE
1415 DA 10      MOVW    $10,YA
1417 CD 0C      MOV     X,#$0C
1419 3F C4 09   CALL    $09C4
141C AB E0      INC     $E0
141E CD 0C      MOV     X,#$0C
1420 E8 00      MOV     A,#$00
1422 D5 51 03   MOV     $0351+X,A
1425 EB 03      MOV     Y,$03
1427 F6 C0 14   MOV     A,$14C0+Y
142A 8D A2      MOV     Y,#$A2
142C CF         MUL     YA
142D DD         MOV     A,Y
142E D5 21 03   MOV     $0321+X,A
1431 8F 04 E1   MOV     $E1,#$04
1434 EB 07      MOV     Y,$07
1436 F6 B1 14   MOV     A,$14B1+Y
1439 C4 E2      MOV     $E2,A
143B C4 11      MOV     $11,A
143D 8F 00 10   MOV     $10,#$00
1440 3F 8F 0F   CALL    $0F8F
1443 73 D4 48   BBC     $D4,#3,$148E
1446 CD 40      MOV     X,#$40
1448 8D 44      MOV     Y,#$44
144A 3F D2 17   CALL    $17D2
144D CD 40      MOV     X,#$40
144F 8D 34      MOV     Y,#$34
1451 3F D2 17   CALL    $17D2
1454 CD 40      MOV     X,#$40
1456 8D 24      MOV     Y,#$24
1458 3F D2 17   CALL    $17D2
145B CD 40      MOV     X,#$40
145D 8D 14      MOV     Y,#$14
145F 3F D2 17   CALL    $17D2
1462 CD 40      MOV     X,#$40
1464 8D 04      MOV     Y,#$04
1466 3F D2 17   CALL    $17D2
1469 CD 08      MOV     X,#$08
146B FA E2 11   MOV     $11,$E2
146E 8F 00 10   MOV     $10,#$00
1471 E5 2D 03   MOV     A,$032D
1474 8D D3      MOV     Y,#$D3
1476 CF         MUL     YA
1477 DD         MOV     A,Y
1478 D5 21 03   MOV     $0321+X,A
147B 3F 8F 0F   CALL    $0F8F
147E 7D         MOV     A,X
147F 5C         LSR     A
1480 FD         MOV     Y,A
1481 DC         DEC     Y
1482 DC         DEC     Y
1483 7A DE      ADDW    YA,$DE
1485 DA 10      MOVW    $10,YA
1487 3F C4 09   CALL    $09C4
148A 1D         DEC     X
148B 1D         DEC     X
148C 10 DD      BPL     $146B
148E 73 D4 0F   BBC     $D4,#3,$14A0
1491 E5 A9 03   MOV     A,$03A9
1494 D0 1A      BNE     $14B0
1496 AC A9 03   INC     $03A9
1499 18 1F 1C   OR      $1C,#$1F
149C 18 1F 45   OR      $45,#$1F
149F 6F         RET
14A0 E5 A9 03   MOV     A,$03A9
14A3 F0 0B      BEQ     $14B0
14A5 E8 00      MOV     A,#$00
14A7 C5 A9 03   MOV     $03A9,A
14AA 38 E0 1C   AND     $1C,#$E0
14AD 18 1F 46   OR      $46,#$1F
14B0 6F         RET
;
14B1 03 04 05   BBS     $04,#0,$14B9
14B4 06         OR      A,(X)
14B5 07 08      OR      A,[$08+X]
14B7 09 0A 0B   OR      $0B,$0A
14BA 0C 0D 0E   ASL     $0E0D
14BD 0F         BRK
14BE 10 11      BPL     $14D1
;
14C0 00         NOP
14C1 63 88 93   BBS     $88,#3,$1457
14C4 BA E8      MOVW    YA,$E8
14C6 FF         STOP
14C7 E8 BA      MOV     A,#$BA
14C9 93 88 7F   BBC     $88,#4,$154B
14CC 77 69      CMP     A,[$69]+Y
14CE 62 56      SET1    $56.#3
14D0 E4 1E      MOV     A,$1E
14D2 D0 37      BNE     $150B
14D4 18 A0 46   OR      $46,#$A0
14D7 8F 2C 1E   MOV     $1E,#$2C
14DA E8 33      MOV     A,#$33
14DC C5 2B 03   MOV     $032B,A
14DF C5 2F 03   MOV     $032F,A
14E2 E8 02      MOV     A,#$02
14E4 C5 3B 03   MOV     $033B,A
14E7 E8 0C      MOV     A,#$0C
14E9 C5 3F 03   MOV     $033F,A
14EC E8 00      MOV     A,#$00
14EE C5 5B 03   MOV     $035B,A
14F1 C5 5F 03   MOV     $035F,A
14F4 C5 3A 03   MOV     $033A,A
14F7 C5 3E 03   MOV     $033E,A
14FA C5 6A 03   MOV     $036A,A
14FD C5 6E 03   MOV     $036E,A
1500 E8 BC      MOV     A,#$BC
1502 C5 6B 03   MOV     $036B,A
1505 E8 B6      MOV     A,#$B6
1507 C5 6F 03   MOV     $036F,A
150A 6F         RET
150B 8B 1E      DEC     $1E
150D F0 C5      BEQ     $14D4
150F 78 28 1E   CMP     $1E,#$28
1512 D0 17      BNE     $152B
1514 8F 00 47   MOV     $47,#$00
1517 38 5F 49   AND     $49,#$5F
151A CD 0A      MOV     X,#$0A
151C E8 06      MOV     A,#$06
151E 3F 7C 0C   CALL    $0C7C
1521 CD 0E      MOV     X,#$0E
1523 E8 06      MOV     A,#$06
1525 3F 7C 0C   CALL    $0C7C
1528 18 A0 45   OR      $45,#$A0
152B 78 1E 1E   CMP     $1E,#$1E
152E B0 22      BCS     $1552
1530 E5 6A 03   MOV     A,$036A
1533 EC 6B 03   MOV     Y,$036B
1536 3F 9C 15   CALL    $159C
1539 9A 10      SUBW    YA,$10
153B C5 6A 03   MOV     $036A,A
153E CC 6B 03   MOV     $036B,Y
1541 E5 6E 03   MOV     A,$036E
1544 EC 6F 03   MOV     Y,$036F
1547 3F 9C 15   CALL    $159C
154A 9A 10      SUBW    YA,$10
154C C5 6E 03   MOV     $036E,A
154F CC 6F 03   MOV     $036F,Y
1552 E5 6A 03   MOV     A,$036A
1555 EC 6B 03   MOV     Y,$036B
1558 DA 10      MOVW    $10,YA
155A CD 0A      MOV     X,#$0A
155C 3F C4 09   CALL    $09C4
155F E5 6E 03   MOV     A,$036E
1562 EC 6F 03   MOV     Y,$036F
1565 DA 10      MOVW    $10,YA
1567 CD 0E      MOV     X,#$0E
1569 3F C4 09   CALL    $09C4
156C E5 3A 03   MOV     A,$033A
156F EC 3B 03   MOV     Y,$033B
1572 3F 9C 15   CALL    $159C
1575 7A 10      ADDW    YA,$10
1577 C5 3A 03   MOV     $033A,A
157A CC 3B 03   MOV     $033B,Y
157D DA 10      MOVW    $10,YA
157F CD 0A      MOV     X,#$0A
1581 3F 8F 0F   CALL    $0F8F
1584 E5 3E 03   MOV     A,$033E
1587 EC 3F 03   MOV     Y,$033F
158A 3F 9C 15   CALL    $159C
158D 7A 10      ADDW    YA,$10
158F C5 3E 03   MOV     $033E,A
1592 CC 3F 03   MOV     $033F,Y
1595 DA 10      MOVW    $10,YA
1597 CD 0E      MOV     X,#$0E
1599 5F 8F 0F   JMP     $0F8F
159C 8F 2A 10   MOV     $10,#$2A
159F 8F 00 11   MOV     $11,#$00
15A2 6F         RET
15A3 E5 2B 03   MOV     A,$032B
15A6 C5 A3 03   MOV     $03A3,A
15A9 E5 5B 03   MOV     A,$035B
15AC C5 A4 03   MOV     $03A4,A
15AF C2 0D      SET1    $0D.#6
15B1 8F 0E 26   MOV     $26,#$0E
15B4 A2 1C      SET1    $1C.#5
15B6 A2 46      SET1    $46.#5
15B8 6F         RET
;
15B9 8B 26      DEC     $26
15BB F0 1B      BEQ     $15D8
15BD 78 02 26   CMP     $26,#$02
15C0 F0 F4      BEQ     $15B6
15C2 78 0A 26   CMP     $26,#$0A
15C5 D0 F1      BNE     $15B8
15C7 E8 2E      MOV     A,#$2E
15C9 C5 2B 03   MOV     $032B,A
15CC E8 06      MOV     A,#$06
15CE 3F 39 1C   CALL    $1C39
15D1 8D B9      MOV     Y,#$B9
15D3 E8 00      MOV     A,#$00
15D5 5F 22 1C   JMP     $1C22
15D8 C3 01 D6   BBS     $01,#6,$15B1
15DB D2 0D      CLR1    $0D.#6
15DD A2 46      SET1    $46.#5
15DF B2 1C      CLR1    $1C.#5
15E1 CD 0A      MOV     X,#$0A
15E3 E5 A3 03   MOV     A,$03A3
15E6 C5 2B 03   MOV     $032B,A
15E9 E5 A4 03   MOV     A,$03A4
15EC C5 5B 03   MOV     $035B,A
15EF EC 31 03   MOV     Y,$0331
15F2 E5 30 03   MOV     A,$0330
15F5 DA 10      MOVW    $10,YA
15F7 3F 8F 0F   CALL    $0F8F
15FA E5 1B 02   MOV     A,$021B
15FD 5F 7C 0C   JMP     $0C7C
1600 5F A3 15   JMP     $15A3
;
1603 E5 F5 00   MOV     A,$00F5
1606 65 F5 00   CMP     A,$00F5
1609 D0 F8      BNE     $1603
160B FA 01 13   MOV     $13,$01
160E C5 F5 00   MOV     $00F5,A
1611 C4 01      MOV     $01,A
1613 E4 04      MOV     A,$04
1615 F0 0A      BEQ     $1621
1617 68 04      CMP     A,#$04
1619 F0 06      BEQ     $1621
161B 68 05      CMP     A,#$05
161D F0 02      BEQ     $1621
161F 2F 13      BRA     $1634
1621 D3 0D 05   BBC     $0D,#6,$1629
1624 3F B9 15   CALL    $15B9
1627 2F 20      BRA     $1649
1629 D3 01 1D   BBC     $01,#6,$1649
162C 3F A3 15   CALL    $15A3
162F 2F 18      BRA     $1649
1631 5F D0 14   JMP     $14D0
1634 C3 01 FA   BBS     $01,#6,$1631
1637 E4 1E      MOV     A,$1E
1639 F0 0E      BEQ     $1649
163B 8F 00 1E   MOV     $1E,#$00
163E 18 A0 46   OR      $46,#$A0
1641 E4 01      MOV     A,$01
1643 28 3F      AND     A,#$3F
1645 F0 02      BEQ     $1649
1647 E2 45      SET1    $45.#7
1649 EB 05      MOV     Y,$05
164B E4 01      MOV     A,$01
164D 28 3F      AND     A,#$3F
164F C4 05      MOV     $05,A
1651 D0 17      BNE     $166A
1653 DD         MOV     A,Y
1654 F0 13      BEQ     $1669
1656 F2 1C      CLR1    $1C.#7
1658 CD 0E      MOV     X,#$0E
165A F5 11 02   MOV     A,$0211+X
165D 3F 7C 0C   CALL    $0C7C
1660 8F 00 05   MOV     $05,#$00
1663 8F 00 25   MOV     $25,#$00
1666 18 80 46   OR      $46,#$80
1669 6F         RET
166A E4 13      MOV     A,$13
166C F0 F2      BEQ     $1660
166E 44 01      EOR     A,$01
1670 10 06      BPL     $1678
1672 F3 01 03   BBC     $01,#7,$1678
1675 8F 1E 25   MOV     $25,#$1E
1678 DD         MOV     A,Y
1679 D0 09      BNE     $1684
167B 8F 00 20   MOV     $20,#$00
167E E2 45      SET1    $45.#7
1680 E2 1C      SET1    $1C.#7
1682 2F 20      BRA     $16A4
1684 7E 05      CMP     Y,$05
1686 F0 0E      BEQ     $1696
1688 CD 40      MOV     X,#$40
168A D8 20      MOV     $20,X
168C E4 05      MOV     A,$05
168E 80         SETC
168F A4 22      SBC     A,$22
1691 3F CD 0E   CALL    $0ECD
1694 DA 23      MOVW    $23,YA
1696 F8 20      MOV     X,$20
1698 F0 0A      BEQ     $16A4
169A 8B 20      DEC     $20
169C F0 06      BEQ     $16A4
169E BA 21      MOVW    YA,$21
16A0 7A 23      ADDW    YA,$23
16A2 2F 04      BRA     $16A8
16A4 EB 05      MOV     Y,$05
16A6 E8 00      MOV     A,#$00
16A8 DA 21      MOVW    $21,YA
16AA DA 10      MOVW    $10,YA
16AC 8F 0C 15   MOV     $15,#$0C
16AF 8F 00 14   MOV     $14,#$00
16B2 9A 14      SUBW    YA,$14
16B4 90 21      BCC     $16D7
16B6 DA 10      MOVW    $10,YA
16B8 4B 11      LSR     $11
16BA 6B 10      ROR     $10
16BC BA 14      MOVW    YA,$14
16BE 7A 10      ADDW    YA,$10
16C0 DA 10      MOVW    $10,YA
16C2 8F 1C 15   MOV     $15,#$1C
16C5 BA 10      MOVW    YA,$10
16C7 9A 14      SUBW    YA,$14
16C9 90 0C      BCC     $16D7
16CB DA 10      MOVW    $10,YA
16CD 4B 11      LSR     $11
16CF 6B 10      ROR     $10
16D1 BA 14      MOVW    YA,$14
16D3 7A 10      ADDW    YA,$10
16D5 DA 10      MOVW    $10,YA
16D7 60         CLRC
16D8 98 0C 11   ADC     $11,#$0C
16DB F8 25      MOV     X,$25
16DD F0 06      BEQ     $16E5
16DF 8F 03 11   MOV     $11,#$03
16E2 8F 00 10   MOV     $10,#$00
16E5 CD 0E      MOV     X,#$0E
16E7 F2 47      CLR1    $47.#7
16E9 3F C4 09   CALL    $09C4
16EC EB 25      MOV     Y,$25
16EE F0 0B      BEQ     $16FB
16F0 8B 25      DEC     $25
16F2 F6 47 18   MOV     A,$1847+Y
16F5 8D B4      MOV     Y,#$B4
16F7 CF         MUL     YA
16F8 DD         MOV     A,Y
16F9 2F 07      BRA     $1702
16FB E8 19      MOV     A,#$19
16FD F3 01 02   BBC     $01,#7,$1702
1700 E8 1B      MOV     A,#$1B
1702 8D 70      MOV     Y,#$70
1704 3F 39 0A   CALL    $0A39
1707 FC         INC     Y
1708 3F 39 0A   CALL    $0A39
170B CD 00      MOV     X,#$00
170D F3 01 06   BBC     $01,#7,$1716
1710 EB 25      MOV     Y,$25
1712 D0 02      BNE     $1716
1714 CD 06      MOV     X,#$06
1716 8D 74      MOV     Y,#$74
1718 3F D2 17   CALL    $17D2
171B 8D 78      MOV     Y,#$78
171D CC F2 00   MOV     $00F2,Y
1720 E5 F3 00   MOV     A,$00F3
1723 D0 02      BNE     $1727
1725 E2 45      SET1    $45.#7
1727 6F         RET
; mess with sample $28
1728 AB 1B      INC     $1B
172A 78 1C 1B   CMP     $1B,#$1C
172D 90 0D      BCC     $173C
172F 8F 00 1B   MOV     $1B,#$00
1732 AB 1A      INC     $1A
1734 78 08 1A   CMP     $1A,#$08
1737 90 03      BCC     $173C
1739 8F 00 1A   MOV     $1A,#$00
173C E4 1B      MOV     A,$1B
173E 8D 09      MOV     Y,#$09
1740 CF         MUL     YA
1741 FD         MOV     Y,A
1742 E4 1A      MOV     A,$1A
1744 08 F8      OR      A,#$F8
1746 C4 15      MOV     $15,A
1748 8F 00 14   MOV     $14,#$00
174B E4 18      MOV     A,$18
174D 28 07      AND     A,#$07
174F 08 F8      OR      A,#$F8
1751 C5 A1 3C   MOV     $3CA1,A
1754 C5 A3 3C   MOV     $3CA3,A
1757 FC         INC     Y
1758 CD 04      MOV     X,#$04
175A AA 19 C0   MOV1    C,$0019.#6
175D 8A 19 A0   EOR1    C,$0019.#5
1760 2B 18      ROL     $18
1762 2B 19      ROL     $19
1764 E4 19      MOV     A,$19
1766 08 11      OR      A,#$11
1768 D7 14      MOV     [$14]+Y,A
176A FC         INC     Y
176B E4 18      MOV     A,$18
176D 08 11      OR      A,#$11
176F D7 14      MOV     [$14]+Y,A
1771 FC         INC     Y
1772 1D         DEC     X
1773 D0 E5      BNE     $175A
1775 6F         RET
;
1776 8D 00      MOV     Y,#$00
1778 CD 1B      MOV     X,#$1B
177A E8 B2      MOV     A,#$B2
177C D6 00 F8   MOV     $F800+Y,A
177F D6 00 F9   MOV     $F900+Y,A
1782 D6 00 FA   MOV     $FA00+Y,A
1785 D6 00 FB   MOV     $FB00+Y,A
1788 D6 00 FC   MOV     $FC00+Y,A
178B D6 00 FD   MOV     $FD00+Y,A
178E D6 00 FE   MOV     $FE00+Y,A
1791 D6 00 FF   MOV     $FF00+Y,A
1794 FC         INC     Y
1795 FC         INC     Y
1796 FC         INC     Y
1797 FC         INC     Y
1798 FC         INC     Y
1799 FC         INC     Y
179A FC         INC     Y
179B FC         INC     Y
179C FC         INC     Y			; Y += 9
179D 1D         DEC     X
179E D0 DC      BNE     $177C
17A0 BC         INC     A
17A1 D6 00 F8   MOV     $F800+Y,A
17A4 D6 00 F9   MOV     $F900+Y,A
17A7 D6 00 FA   MOV     $FA00+Y,A
17AA D6 00 FB   MOV     $FB00+Y,A
17AD D6 00 FC   MOV     $FC00+Y,A
17B0 D6 00 FD   MOV     $FD00+Y,A
17B3 D6 00 FE   MOV     $FE00+Y,A
17B6 D6 00 FF   MOV     $FF00+Y,A
17B9 8D F8      MOV     Y,#$F8
17BB E8 00      MOV     A,#$00
17BD C5 A0 3C   MOV     $3CA0,A
17C0 CC A1 3C   MOV     $3CA1,Y
17C3 C5 A2 3C   MOV     $3CA2,A
17C6 CC A3 3C   MOV     $3CA3,Y
17C9 E4 18      MOV     A,$18
17CB 04 19      OR      A,$19
17CD D0 02      BNE     $17D1
17CF AB 18      INC     $18
17D1 6F         RET
;
17D2 8F 04 12   MOV     $12,#$04
17D5 DD         MOV     A,Y
17D6 28 70      AND     A,#$70
17D8 1C         ASL     A
17D9 08 12      OR      A,#$12
17DB C5 DE 17   MOV     $17DE,A		; next opcode is CLR1 $49.#n
17DE 12 49      CLR1    $49.#0		; noise vbits shadow
17E0 F5 FE 17   MOV     A,$17FE+X
17E3 3F 39 0A   CALL    $0A39
17E6 3D         INC     X
17E7 FC         INC     Y
17E8 6E 12 F5   DBNZ    $12,$17E0
17EB DD         MOV     A,Y
17EC 9F         XCN     A
17ED 28 07      AND     A,#$07
17EF 1C         ASL     A
17F0 FD         MOV     Y,A
17F1 F5 FE 17   MOV     A,$17FE+X
17F4 D6 21 02   MOV     $0221+Y,A
17F7 F5 FF 17   MOV     A,$17FF+X
17FA D6 20 02   MOV     $0220+Y,A
17FD 6F         RET
;
17FE 28 FF E0 B8 03 90
1804 28 FF E0 B8 05 30
180A 28 FF E0 B8 02 00
1810 0D AE A8 B8 04 D4
1816 04 FF F2 B8 0F 00
181C 12 FF E0 B8 01 D4
1822 02 FF E0 B8
1826 0D FF E0 B8 01 00
182C 12 FF E0 B8 02 34
1832 02 FF F0 B8 05 00
1838 28 FF E0 B8 03 00
183E 28 F9 E0 B8 03 00
;
1844 1C         ASL     A
1845 1D         DEC     X
1846 1E 1F 6F   CMP     X,$6F1F
1849 6F         RET
184A 70 71      BVS     $18BD
184C 72 73      CLR1    $73.#3
184E 74 75      CMP     A,$75+X
1850 76 78 79   CMP     A,$7978+Y
1853 79         CMP     (X),(Y)
1854 79         CMP     (X),(Y)
1855 7A 7A      ADDW    YA,$7A
1857 7B 7C      ROR     $7C+X
1859 7C         ROR     A
185A 7D         MOV     A,X
185B 7D         MOV     A,X
185C 7E 7E      CMP     Y,$7E
185E 7F         RETI
185F 7F         RETI
1860 7F         RETI
1861 7F         RETI
1862 7F         RETI
1863 7F         RETI
1864 7F         RETI
1865 6F         RET
1866 0B 0B      ASL     $0B
1868 0B 0B      ASL     $0B
186A 0C 0C 0C   ASL     $0C0C
186D 0D         PUSH    PSW
186E 0D         PUSH    PSW
186F 0D         PUSH    PSW
1870 0D         PUSH    PSW
1871 0D         PUSH    PSW
1872 0D         PUSH    PSW
1873 0D         PUSH    PSW
1874 0D         PUSH    PSW
1875 0E 0E 0F   TSET1   $0F0E
1878 0F         BRK
1879 0F         BRK
187A 10 10      BPL     $188C
187C 11         TCALL   $1
187D 11         TCALL   $1
187E 11         TCALL   $1
187F 11         TCALL   $1
1880 12 12      CLR1    $12.#0
1882 13 13 13   BBC     $13,#0,$1898
1885 14 14      OR      A,$14+X
1887 18 18 1A   OR      $1A,#$18
188A 1A 1C      DECW    $1C
188C 1C         ASL     A
188D 1C         ASL     A
188E 20         CLRP
188F 20         CLRP
1890 20         CLRP
1891 22 22      SET1    $22.#1
1893 24 26      AND     A,$26
1895 30 4A      BMI     $18E1
1897 4C 50 5A   LSR     $5A50
189A 5C         LSR     A
189B 5E 60 6E   CMP     Y,$6E60
189E 72 74      CLR1    $74.#3
18A0 76 76 7C   CMP     A,$7C76+Y
18A3 7C         ROR     A
18A4 7D         MOV     A,X
18A5 7E 7F      CMP     Y,$7F
18A7 7F         RETI
18A8 7F         RETI
18A9 7F         RETI
18AA 7F         RETI
18AB 7F         RETI
;
18AC 8F 00 04   MOV     $04,#$00
18AF 8F FF 46   MOV     $46,#$FF
18B2 18 E0 1C   OR      $1C,#$E0
18B5 E2 06      SET1    $06.#7
18B7 8F 8C 26   MOV     $26,#$8C
18BA 8F 1E 4E   MOV     $4E,#$1E
18BD E8 00      MOV     A,#$00
18BF 3F 26 0E   CALL    $0E26
18C2 8F F0 4F   MOV     $4F,#$F0
18C5 8F 1E 61   MOV     $61,#$1E
18C8 8F 1E 63   MOV     $63,#$1E
18CB CD 00      MOV     X,#$00
18CD 8D 44      MOV     Y,#$44
18CF 3F D2 17   CALL    $17D2
18D2 8D 90      MOV     Y,#$90
18D4 82 45      SET1    $45.#4
18D6 E8 00      MOV     A,#$00
18D8 DA 10      MOVW    $10,YA
18DA 92 47      CLR1    $47.#4
18DC CD 08      MOV     X,#$08
18DE 3F C4 09   CALL    $09C4
18E1 CD 24      MOV     X,#$24
18E3 8D 54      MOV     Y,#$54
18E5 3F D2 17   CALL    $17D2
18E8 8F 10 48   MOV     $48,#$10
18EB A2 49      SET1    $49.#5
18ED CD 28      MOV     X,#$28
18EF 8D 74      MOV     Y,#$74
18F1 3F D2 17   CALL    $17D2
18F4 CD 28      MOV     X,#$28
18F6 8D 64      MOV     Y,#$64
18F8 3F D2 17   CALL    $17D2
18FB CD 2E      MOV     X,#$2E
18FD 8D 34      MOV     Y,#$34
18FF 3F D2 17   CALL    $17D2
1902 CD 2E      MOV     X,#$2E
1904 8D 24      MOV     Y,#$24
1906 3F D2 17   CALL    $17D2
1909 6F         RET
;
190A 4D         PUSH    X
190B CD 0C      MOV     X,#$0C
190D D5 21 03   MOV     $0321+X,A
1910 D2 47      CLR1    $47.#6
1912 3F C4 09   CALL    $09C4
1915 E8 28      MOV     A,#$28
1917 D5 51 03   MOV     $0351+X,A
191A 8F 12 11   MOV     $11,#$12
191D 8F 00 10   MOV     $10,#$00
1920 3F 8F 0F   CALL    $0F8F
1923 18 40 45   OR      $45,#$40
1926 CE         POP     X
1927 6F         RET
;
1928 4D         PUSH    X
1929 CD 0E      MOV     X,#$0E
192B D5 21 03   MOV     $0321+X,A
192E F2 47      CLR1    $47.#7
1930 3F C4 09   CALL    $09C4
1933 E8 28      MOV     A,#$28
1935 D5 51 03   MOV     $0351+X,A
1938 8F 02 11   MOV     $11,#$02
193B 8F 00 10   MOV     $10,#$00
193E 3F 8F 0F   CALL    $0F8F
1941 18 80 45   OR      $45,#$80
1944 CE         POP     X
1945 6F         RET
;
1946 4D         PUSH    X
1947 CD 04      MOV     X,#$04
1949 D5 21 03   MOV     $0321+X,A
194C 52 47      CLR1    $47.#2
194E 3F C4 09   CALL    $09C4
1951 E8 28      MOV     A,#$28
1953 D5 51 03   MOV     $0351+X,A
1956 8F 09 11   MOV     $11,#$09
1959 8F 00 10   MOV     $10,#$00
195C 3F 8F 0F   CALL    $0F8F
195F 18 04 45   OR      $45,#$04
1962 CE         POP     X
1963 6F         RET
;
1964 4D         PUSH    X
1965 CD 06      MOV     X,#$06
1967 D5 21 03   MOV     $0321+X,A
196A 72 47      CLR1    $47.#3
196C 3F C4 09   CALL    $09C4
196F E8 28      MOV     A,#$28
1971 D5 51 03   MOV     $0351+X,A
1974 8F 0B 11   MOV     $11,#$0B
1977 8F 00 10   MOV     $10,#$00
197A 3F 8F 0F   CALL    $0F8F
197D 18 08 45   OR      $45,#$08
1980 CE         POP     X
1981 6F         RET
;
1982 E4 26      MOV     A,$26
1984 5C         LSR     A
1985 5D         MOV     X,A
1986 D0 03      BNE     $198B
1988 5F 27 1A   JMP     $1A27
198B C8 46      CMP     X,#$46
198D D0 35      BNE     $19C4
198F 8F 7F D8   MOV     $D8,#$7F
1992 8D AF      MOV     Y,#$AF
1994 E8 00      MOV     A,#$00
1996 DA 10      MOVW    $10,YA
1998 E8 FF      MOV     A,#$FF
199A 3F 28 19   CALL    $1928
199D 8D A6      MOV     Y,#$A6
199F E8 00      MOV     A,#$00
19A1 DA 10      MOVW    $10,YA
19A3 E8 FF      MOV     A,#$FF
19A5 3F 0A 19   CALL    $190A
19A8 8D A3      MOV     Y,#$A3
19AA E8 00      MOV     A,#$00
19AC DA 10      MOVW    $10,YA
19AE E8 FF      MOV     A,#$FF
19B0 3F 46 19   CALL    $1946
19B3 8D A1      MOV     Y,#$A1
19B5 E8 00      MOV     A,#$00
19B7 DA 10      MOVW    $10,YA
19B9 E8 FF      MOV     A,#$FF
19BB 3F 64 19   CALL    $1964
19BE 8F FF 46   MOV     $46,#$FF
19C1 18 FC 45   OR      $45,#$FC
19C4 F5 65 18   MOV     A,$1865+X
19C7 8D FF      MOV     Y,#$FF
19C9 CF         MUL     YA
19CA DD         MOV     A,Y
19CB 8D 40      MOV     Y,#$40
19CD 3F 39 0A   CALL    $0A39
19D0 FC         INC     Y
19D1 3F 39 0A   CALL    $0A39
19D4 8D FF      MOV     Y,#$FF
19D6 CF         MUL     YA
19D7 DD         MOV     A,Y
19D8 8D 50      MOV     Y,#$50
19DA 3F 39 0A   CALL    $0A39
19DD FC         INC     Y
19DE 3F 39 0A   CALL    $0A39
19E1 C8 3A      CMP     X,#$3A
19E3 D0 03      BNE     $19E8
19E5 18 80 46   OR      $46,#$80
19E8 C8 37      CMP     X,#$37
19EA D0 0E      BNE     $19FA
19EC 8D 98      MOV     Y,#$98
19EE E8 00      MOV     A,#$00
19F0 DA 10      MOVW    $10,YA
19F2 E8 FF      MOV     A,#$FF
19F4 3F 28 19   CALL    $1928
19F7 18 40 46   OR      $46,#$40
19FA C8 23      CMP     X,#$23
19FC D0 0E      BNE     $1A0C
19FE 8D 97      MOV     Y,#$97
1A00 E8 00      MOV     A,#$00
1A02 DA 10      MOVW    $10,YA
1A04 E8 FF      MOV     A,#$FF
1A06 3F 0A 19   CALL    $190A
1A09 18 80 46   OR      $46,#$80
1A0C C8 08      CMP     X,#$08
1A0E D0 0E      BNE     $1A1E
1A10 8D 98      MOV     Y,#$98
1A12 E8 00      MOV     A,#$00
1A14 DA 10      MOVW    $10,YA
1A16 E8 FF      MOV     A,#$FF
1A18 3F 28 19   CALL    $1928
1A1B 18 40 46   OR      $46,#$40
1A1E 8B 26      DEC     $26
1A20 D0 3D      BNE     $1A5F
1A22 82 46      SET1    $46.#4
1A24 8F A0 27   MOV     $27,#$A0
1A27 F3 02 36   BBC     $02,#7,$1A60
1A2A 78 78 27   CMP     $27,#$78
1A2D D0 0E      BNE     $1A3D
1A2F 8D 91      MOV     Y,#$91
1A31 E8 00      MOV     A,#$00
1A33 DA 10      MOVW    $10,YA
1A35 E8 40      MOV     A,#$40
1A37 3F 0A 19   CALL    $190A
1A3A 18 80 46   OR      $46,#$80
1A3D 78 3C 27   CMP     $27,#$3C
1A40 D0 0E      BNE     $1A50
1A42 8D 91      MOV     Y,#$91
1A44 E8 00      MOV     A,#$00
1A46 DA 10      MOVW    $10,YA
1A48 E8 40      MOV     A,#$40
1A4A 3F 28 19   CALL    $1928
1A4D 18 40 46   OR      $46,#$40
1A50 E8 08      MOV     A,#$08
1A52 8D 50      MOV     Y,#$50
1A54 3F 39 0A   CALL    $0A39
1A57 FC         INC     Y
1A58 3F 39 0A   CALL    $0A39
1A5B 8B 27      DEC     $27
1A5D F0 C5      BEQ     $1A24
1A5F 6F         RET
1A60 8F 00 61   MOV     $61,#$00
1A63 8F 00 63   MOV     $63,#$00
1A66 18 FC 46   OR      $46,#$FC
1A69 38 1F 1C   AND     $1C,#$1F
1A6C 92 49      CLR1    $49.#4
1A6E A2 48      SET1    $48.#5
1A70 CD 31      MOV     X,#$31
1A72 C9 F1 00   MOV     $00F1,X
1A75 E8 00      MOV     A,#$00
1A77 C4 06      MOV     $06,A
1A79 C4 02      MOV     $02,A
1A7B C4 29      MOV     $29,A
1A7D 6F         RET
1A7E 5F AC 18   JMP     $18AC
1A81 5F 82 19   JMP     $1982
;
1A84 C3 01 EE   BBS     $01,#6,$1A75
1A87 E3 06 F7   BBS     $06,#7,$1A81
1A8A EB 0A      MOV     Y,$0A
1A8C FA 02 0A   MOV     $0A,$02
1A8F DD         MOV     A,Y
1A90 44 02      EOR     A,$02
1A92 C4 12      MOV     $12,A
1A94 24 02      AND     A,$02
1A96 C4 13      MOV     $13,A
1A98 30 E4      BMI     $1A7E
1A9A CD 0A      MOV     X,#$0A
1A9C C3 02 38   BBS     $02,#6,$1AD7
1A9F C3 06 49   BBS     $06,#6,$1AEB
1AA2 E4 12      MOV     A,$12
1AA4 28 07      AND     A,#$07
1AA6 F0 06      BEQ     $1AAE
1AA8 E4 02      MOV     A,$02
1AAA 28 03      AND     A,#$03
1AAC D0 40      BNE     $1AEE
1AAE E4 06      MOV     A,$06
1AB0 28 03      AND     A,#$03
1AB2 D0 1A      BNE     $1ACE
1AB4 63 06 1D   BBS     $06,#3,$1AD4
1AB7 63 13 17   BBS     $13,#3,$1AD1
1ABA E4 D1      MOV     A,$D1
1ABC D0 0F      BNE     $1ACD
1ABE 83 D6 0C   BBS     $D6,#4,$1ACD
1AC1 83 02 16   BBS     $02,#4,$1ADA
1AC4 A3 02 13   BBS     $02,#5,$1ADA
1AC7 83 06 13   BBS     $06,#4,$1ADD
1ACA A3 06 10   BBS     $06,#5,$1ADD
1ACD 6F         RET
1ACE 5F 3A 1B   JMP     $1B3A
1AD1 5F 50 1C   JMP     $1C50
1AD4 5F 66 1C   JMP     $1C66
1AD7 5F 98 1C   JMP     $1C98
1ADA 5F D8 1C   JMP     $1CD8
1ADD 8C AA 03   DEC     $03AA
1AE0 F0 03      BEQ     $1AE5
1AE2 A2 46      SET1    $46.#5
1AE4 6F         RET
1AE5 8F 00 29   MOV     $29,#$00
1AE8 3F DF 15   CALL    $15DF
1AEB 5F 6C 1B   JMP     $1B6C
1AEE E4 02      MOV     A,$02
1AF0 28 07      AND     A,#$07
1AF2 C4 06      MOV     $06,A
1AF4 43 06 0E   BBS     $06,#2,$1B05
1AF7 8F 14 4E   MOV     $4E,#$14
1AFA 8F 2F 4F   MOV     $4F,#$2F
1AFD 8F 18 61   MOV     $61,#$18
1B00 8F 18 63   MOV     $63,#$18
1B03 2F 0C      BRA     $1B11
1B05 8F 1E 4E   MOV     $4E,#$1E
1B08 8F 2F 4F   MOV     $4F,#$2F
1B0B 8F 1F 61   MOV     $61,#$1F
1B0E 8F 1F 63   MOV     $63,#$1F
1B11 E4 06      MOV     A,$06
1B13 28 07      AND     A,#$07
1B15 FD         MOV     Y,A
1B16 F6 2A 1B   MOV     A,$1B2A+Y
1B19 C4 26      MOV     $26,A
1B1B F6 32 1B   MOV     A,$1B32+Y
1B1E 8D A3      MOV     Y,#$A3
1B20 CF         MUL     YA
1B21 DD         MOV     A,Y
1B22 C5 2B 03   MOV     $032B,A
1B25 A2 1C      SET1    $1C.#5
1B27 A2 46      SET1    $46.#5
1B29 6F         RET
1B2A 00         NOP
1B2B 1E 1E 28   CMP     X,$281E
1B2E 00         NOP
1B2F 1E 2C 36   CMP     X,$362C
1B32 00         NOP
1B33 93 8E FF   BBC     $8E,#4,$1B35
1B36 00         NOP
1B37 A8 C8      SBC     A,#$C8
1B39 FF         STOP
1B3A 8B 26      DEC     $26
1B3C F0 40      BEQ     $1B7E
1B3E 10 41      BPL     $1B81
1B40 78 FC 26   CMP     $26,#$FC
1B43 D0 39      BNE     $1B7E
1B45 E5 A0 03   MOV     A,$03A0
1B48 C4 4E      MOV     $4E,A
1B4A E5 A2 03   MOV     A,$03A2
1B4D C4 4F      MOV     $4F,A
1B4F E8 00      MOV     A,#$00
1B51 C4 61      MOV     $61,A
1B53 C4 63      MOV     $63,A
1B55 E8 0A      MOV     A,#$0A
1B57 C4 68      MOV     $68,A
1B59 E5 A1 03   MOV     A,$03A1
1B5C C4 69      MOV     $69,A
1B5E C4 6A      MOV     $6A,A
1B60 80         SETC
1B61 A4 61      SBC     A,$61
1B63 F8 68      MOV     X,$68
1B65 3F CD 0E   CALL    $0ECD
1B68 DA 64      MOVW    $64,YA
1B6A DA 66      MOVW    $66,YA
1B6C E8 00      MOV     A,#$00
1B6E C4 D2      MOV     $D2,A
1B70 C4 D5      MOV     $D5,A
1B72 B2 1C      CLR1    $1C.#5
1B74 E8 00      MOV     A,#$00
1B76 C4 06      MOV     $06,A
1B78 C4 D1      MOV     $D1,A
1B7A C4 D6      MOV     $D6,A
1B7C C4 26      MOV     $26,A
1B7E A2 46      SET1    $46.#5
1B80 6F         RET
1B81 43 06 4C   BBS     $06,#2,$1BD0
1B84 33 06 4B   BBC     $06,#1,$1BD2
1B87 03 06 17   BBS     $06,#0,$1BA1
1B8A E4 26      MOV     A,$26
1B8C 68 1A      CMP     A,#$1A
1B8E D0 04      BNE     $1B94
1B90 CD 18      MOV     X,#$18
1B92 2F 55      BRA     $1BE9
1B94 68 0E      CMP     A,#$0E
1B96 F0 59      BEQ     $1BF1
1B98 68 08      CMP     A,#$08
1B9A F0 5C      BEQ     $1BF8
1B9C 68 04      CMP     A,#$04
1B9E F0 51      BEQ     $1BF1
1BA0 6F         RET
1BA1 E4 26      MOV     A,$26
1BA3 68 24      CMP     A,#$24
1BA5 D0 04      BNE     $1BAB
1BA7 CD 1E      MOV     X,#$1E
1BA9 2F 3E      BRA     $1BE9
1BAB 68 20      CMP     A,#$20
1BAD F0 42      BEQ     $1BF1
1BAF 68 1E      CMP     A,#$1E
1BB1 F0 3E      BEQ     $1BF1
1BB3 68 1C      CMP     A,#$1C
1BB5 F0 3A      BEQ     $1BF1
1BB7 68 12      CMP     A,#$12
1BB9 F0 3D      BEQ     $1BF8
1BBB 68 10      CMP     A,#$10
1BBD F0 39      BEQ     $1BF8
1BBF 68 0E      CMP     A,#$0E
1BC1 F0 35      BEQ     $1BF8
1BC3 68 0C      CMP     A,#$0C
1BC5 F0 2A      BEQ     $1BF1
1BC7 68 04      CMP     A,#$04
1BC9 F0 2D      BEQ     $1BF8
1BCB 68 02      CMP     A,#$02
1BCD F0 29      BEQ     $1BF8
1BCF 6F         RET
1BD0 2F 3C      BRA     $1C0E
1BD2 E4 26      MOV     A,$26
1BD4 68 1A      CMP     A,#$1A
1BD6 D0 04      BNE     $1BDC
1BD8 CD 12      MOV     X,#$12
1BDA 2F 0D      BRA     $1BE9
1BDC 68 16      CMP     A,#$16
1BDE F0 11      BEQ     $1BF1
1BE0 68 0A      CMP     A,#$0A
1BE2 F0 0D      BEQ     $1BF1
1BE4 68 04      CMP     A,#$04
1BE6 F0 10      BEQ     $1BF8
1BE8 6F         RET
1BE9 8D 54      MOV     Y,#$54
1BEB 3F D2 17   CALL    $17D2
1BEE 3F 42 1C   CALL    $1C42
1BF1 E4 06      MOV     A,$06
1BF3 8D 03      MOV     Y,#$03
1BF5 CF         MUL     YA
1BF6 2F 0F      BRA     $1C07
1BF8 E4 06      MOV     A,$06
1BFA 8D 03      MOV     Y,#$03
1BFC CF         MUL     YA
1BFD BC         INC     A
1BFE 2F 07      BRA     $1C07
1C00 E4 06      MOV     A,$06
1C02 8D 03      MOV     Y,#$03
1C04 CF         MUL     YA
1C05 BC         INC     A
1C06 BC         INC     A
1C07 FD         MOV     Y,A
1C08 F6 93 1D   MOV     A,$1D93+Y
1C0B FD         MOV     Y,A
1C0C 2F 14      BRA     $1C22
1C0E EB 06      MOV     Y,$06
1C10 E4 26      MOV     A,$26
1C12 76 2E 1C   CMP     A,$1C2E+Y
1C15 D0 1B      BNE     $1C32
1C17 E8 0C      MOV     A,#$0C
1C19 3F 39 1C   CALL    $1C39
1C1C EB 06      MOV     Y,$06
1C1E F6 31 1C   MOV     A,$1C31+Y
1C21 FD         MOV     Y,A
1C22 A2 45      SET1    $45.#5
1C24 E8 00      MOV     A,#$00
1C26 DA 10      MOVW    $10,YA
1C28 38 7F 11   AND     $11,#$7F
1C2B B2 47      CLR1    $47.#5
1C2D CD 0A      MOV     X,#$0A
1C2F 3F C4 09   CALL    $09C4
1C32 6F         RET
1C33 1A 28      DECW    $28
1C35 32 97      CLR1    $97.#1
1C37 91         TCALL   $9
1C38 8E         POP     PSW
1C39 B2 49      CLR1    $49.#5
1C3B B2 47      CLR1    $47.#5
1C3D CD 0A      MOV     X,#$0A
1C3F 3F 7C 0C   CALL    $0C7C
1C42 CD 0A      MOV     X,#$0A
1C44 8D 0A      MOV     Y,#$0A
1C46 E8 00      MOV     A,#$00
1C48 DA 10      MOVW    $10,YA
1C4A D5 51 03   MOV     $0351+X,A
1C4D 5F 8F 0F   JMP     $0F8F
1C50 62 06      SET1    $06.#3
1C52 8F 2A 26   MOV     $26,#$2A
1C55 E5 2B 03   MOV     A,$032B
1C58 C5 A3 03   MOV     $03A3,A
1C5B E5 5B 03   MOV     A,$035B
1C5E C5 A4 03   MOV     $03A4,A
1C61 E8 6E      MOV     A,#$6E
1C63 5F 22 1B   JMP     $1B22
1C66 8B 26      DEC     $26
1C68 D0 03      BNE     $1C6D
1C6A 5F E8 1A   JMP     $1AE8
1C6D E4 26      MOV     A,$26
1C6F 68 26      CMP     A,#$26
1C71 F0 18      BEQ     $1C8B
1C73 68 22      CMP     A,#$22
1C75 F0 11      BEQ     $1C88
1C77 68 20      CMP     A,#$20
1C79 F0 19      BEQ     $1C94
1C7B 68 18      CMP     A,#$18
1C7D F0 09      BEQ     $1C88
1C7F 68 16      CMP     A,#$16
1C81 F0 11      BEQ     $1C94
1C83 68 04      CMP     A,#$04
1C85 F0 01      BEQ     $1C88
1C87 6F         RET
1C88 A2 46      SET1    $46.#5
1C8A 6F         RET
1C8B E8 0C      MOV     A,#$0C
1C8D 3F 39 1C   CALL    $1C39
1C90 8D 9C      MOV     Y,#$9C
1C92 2F 8E      BRA     $1C22
1C94 8D 97      MOV     Y,#$97
1C96 2F 8A      BRA     $1C22
1C98 C3 06 0D   BBS     $06,#6,$1CA8
1C9B C2 06      SET1    $06.#6
1C9D 8F 00 26   MOV     $26,#$00
1CA0 8F 00 27   MOV     $27,#$00
1CA3 E8 36      MOV     A,#$36
1CA5 5F 22 1B   JMP     $1B22
1CA8 E4 26      MOV     A,$26
1CAA D0 09      BNE     $1CB5
1CAC AB 26      INC     $26
1CAE E8 00      MOV     A,#$00
1CB0 3F 39 1C   CALL    $1C39
1CB3 A2 45      SET1    $45.#5
1CB5 60         CLRC
1CB6 98 08 27   ADC     $27,#$08
1CB9 E4 27      MOV     A,$27
1CBB 1C         ASL     A
1CBC 1C         ASL     A
1CBD 90 02      BCC     $1CC1
1CBF 48 FF      EOR     A,#$FF
1CC1 8D 0C      MOV     Y,#$0C
1CC3 CF         MUL     YA
1CC4 DA 10      MOVW    $10,YA
1CC6 F3 27 06   BBC     $27,#7,$1CCF
1CC9 BA 0E      MOVW    YA,$0E
1CCB 9A 10      SUBW    YA,$10
1CCD DA 10      MOVW    $10,YA
1CCF 8D 9D      MOV     Y,#$9D
1CD1 E8 00      MOV     A,#$00
1CD3 7A 10      ADDW    YA,$10
1CD5 5F 26 1C   JMP     $1C26
1CD8 E4 06      MOV     A,$06
1CDA 28 30      AND     A,#$30
1CDC D0 40      BNE     $1D1E
1CDE E5 2B 03   MOV     A,$032B
1CE1 C5 A3 03   MOV     $03A3,A
1CE4 E5 5B 03   MOV     A,$035B
1CE7 C5 A4 03   MOV     $03A4,A
1CEA A2 1C      SET1    $1C.#5
1CEC CD 0C      MOV     X,#$0C
1CEE 8D 54      MOV     Y,#$54
1CF0 3F D2 17   CALL    $17D2
1CF3 A2 45      SET1    $45.#5
1CF5 E4 02      MOV     A,$02
1CF7 28 30      AND     A,#$30
1CF9 C4 06      MOV     $06,A
1CFB 9F         XCN     A
1CFC FD         MOV     Y,A
1CFD F6 9E 1D   MOV     A,$1D9E+Y
1D00 C5 2B 03   MOV     $032B,A
1D03 E4 29      MOV     A,$29
1D05 D0 11      BNE     $1D18
1D07 E8 04      MOV     A,#$04
1D09 C5 AA 03   MOV     $03AA,A
1D0C 8F 28 29   MOV     $29,#$28
1D0F 8F 00 28   MOV     $28,#$00
1D12 F6 A4 1D   MOV     A,$1DA4+Y
1D15 5D         MOV     X,A
1D16 2F 1A      BRA     $1D32
1D18 E4 02      MOV     A,$02
1D1A 28 30      AND     A,#$30
1D1C 2F 08      BRA     $1D26
1D1E E4 02      MOV     A,$02
1D20 28 30      AND     A,#$30
1D22 64 06      CMP     A,$06
1D24 F0 21      BEQ     $1D47
1D26 C4 06      MOV     $06,A
1D28 9F         XCN     A
1D29 FD         MOV     Y,A
1D2A F6 9E 1D   MOV     A,$1D9E+Y
1D2D C5 2B 03   MOV     $032B,A
1D30 CD 32      MOV     X,#$32
1D32 D8 26      MOV     $26,X
1D34 F6 A1 1D   MOV     A,$1DA1+Y
1D37 28 7F      AND     A,#$7F
1D39 80         SETC
1D3A A4 29      SBC     A,$29
1D3C 3F CD 0E   CALL    $0ECD
1D3F DA 2A      MOVW    $2A,YA
1D41 3F 42 1C   CALL    $1C42
1D44 8F 00 2F   MOV     $2F,#$00
1D47 F8 26      MOV     X,$26
1D49 F0 25      BEQ     $1D70
1D4B 8B 26      DEC     $26
1D4D F0 09      BEQ     $1D58
1D4F BA 28      MOVW    YA,$28
1D51 7A 2A      ADDW    YA,$2A
1D53 DA 28      MOVW    $28,YA
1D55 5F 26 1C   JMP     $1C26
1D58 E4 02      MOV     A,$02
1D5A 28 30      AND     A,#$30
1D5C 9F         XCN     A
1D5D FD         MOV     Y,A
1D5E F6 A1 1D   MOV     A,$1DA1+Y
1D61 28 7F      AND     A,#$7F
1D63 FD         MOV     Y,A
1D64 E8 00      MOV     A,#$00
1D66 DA 28      MOVW    $28,YA
1D68 3F 26 1C   CALL    $1C26
1D6B E8 14      MOV     A,#$14
1D6D C4 2F      MOV     $2F,A
1D6F 6F         RET
1D70 8B 2F      DEC     $2F
1D72 F0 E4      BEQ     $1D58
1D74 E4 2F      MOV     A,$2F
1D76 68 10      CMP     A,#$10
1D78 F0 01      BEQ     $1D7B
1D7A 6F         RET
1D7B E4 02      MOV     A,$02
1D7D 28 30      AND     A,#$30
1D7F 9F         XCN     A
1D80 FD         MOV     Y,A
1D81 F6 A1 1D   MOV     A,$1DA1+Y
1D84 28 7F      AND     A,#$7F
1D86 FD         MOV     Y,A
1D87 E8 00      MOV     A,#$00
1D89 DA 28      MOVW    $28,YA
1D8B 8D 01      MOV     Y,#$01
1D8D E8 00      MOV     A,#$00
1D8F 7A 28      ADDW    YA,$28
1D91 DA 28      MOVW    $28,YA
1D93 5F 26 1C   JMP     $1C26
1D96 AF         MOV     (X)+,A
1D97 C7 BC      MOV     [$BC+X],A
1D99 8E         POP     PSW
1D9A 95 95 B0   ADC     A,$B095+X
1D9D AF         MOV     (X)+,A
1D9E AD 44      CMP     Y,#$44
1DA0 63 79 AB   BBS     $79,#3,$1D4E
1DA3 AE         POP     A
1DA4 B1         TCALL   $B
1DA5 1A 34      DECW    $34
1DA7 4E 8F 00   TCLR1   $008F
1DAA D1         TCALL   $D
1DAB E5 2B 03   MOV     A,$032B
1DAE C5 A3 03   MOV     $03A3,A
1DB1 E5 5B 03   MOV     A,$035B
1DB4 C5 A4 03   MOV     $03A4,A
1DB7 E8 57      MOV     A,#$57
1DB9 C5 2B 03   MOV     $032B,A
1DBC 8F 30 D6   MOV     $D6,#$30
1DBF E8 00      MOV     A,#$00
1DC1 C4 27      MOV     $27,A
1DC3 C5 AB 03   MOV     $03AB,A
1DC6 8F 01 26   MOV     $26,#$01
1DC9 A2 1C      SET1    $1C.#5
1DCB A2 46      SET1    $46.#5
1DCD 6F         RET
1DCE E4 26      MOV     A,$26
1DD0 D0 12      BNE     $1DE4
1DD2 E4 D4      MOV     A,$D4
1DD4 28 30      AND     A,#$30
1DD6 68 30      CMP     A,#$30
1DD8 D0 52      BNE     $1E2C
1DDA E5 AB 03   MOV     A,$03AB
1DDD F0 4C      BEQ     $1E2B
1DDF 3F 39 1E   CALL    $1E39
1DE2 2F C4      BRA     $1DA8
1DE4 68 02      CMP     A,#$02
1DE6 D0 02      BNE     $1DEA
1DE8 A2 46      SET1    $46.#5
1DEA 68 0A      CMP     A,#$0A
1DEC B0 08      BCS     $1DF6
1DEE E4 D4      MOV     A,$D4
1DF0 28 30      AND     A,#$30
1DF2 68 30      CMP     A,#$30
1DF4 D0 36      BNE     $1E2C
1DF6 8B 26      DEC     $26
1DF8 D0 31      BNE     $1E2B
1DFA F8 27      MOV     X,$27
1DFC AB 27      INC     $27
1DFE F5 4A 1E   MOV     A,$1E4A+X
1E01 C4 26      MOV     $26,A
1E03 F0 26      BEQ     $1E2B
1E05 A2 45      SET1    $45.#5
1E07 B2 47      CLR1    $47.#5
1E09 F5 54 1E   MOV     A,$1E54+X
1E0C C4 11      MOV     $11,A
1E0E 8F 00 10   MOV     $10,#$00
1E11 CD 34      MOV     X,#$34
1E13 8D 54      MOV     Y,#$54
1E15 3F D2 17   CALL    $17D2
1E18 CD 0A      MOV     X,#$0A
1E1A 3F C4 09   CALL    $09C4
1E1D 8F 06 11   MOV     $11,#$06
1E20 E3 26 03   BBS     $26,#7,$1E26
1E23 8F 0E 11   MOV     $11,#$0E
1E26 3F 8F 0F   CALL    $0F8F
1E29 F2 26      CLR1    $26.#7
1E2B 6F         RET
1E2C 8F 00 26   MOV     $26,#$00
1E2F AC AB 03   INC     $03AB
1E32 E5 AB 03   MOV     A,$03AB
1E35 68 03      CMP     A,#$03
1E37 D0 0E      BNE     $1E47
1E39 8F 00 D6   MOV     $D6,#$00
1E3C 8F 00 D5   MOV     $D5,#$00
1E3F 8F 00 06   MOV     $06,#$00
1E42 B2 1C      CLR1    $1C.#5
1E44 3F DF 15   CALL    $15DF
1E47 A2 46      SET1    $46.#5
1E49 6F         RET
1E4A 0E 8A 0A   TSET1   $0A8A
1E4D 8A 0A 8A   EOR1    C,$0A0A.#4
1E50 0A 8A 26   OR1     C,$068A.#1
1E53 00         NOP
1E54 A2 A9      SET1    $A9.#5
1E56 AD AE      CMP     Y,#$AE
1E58 B2 B5      CLR1    $B5.#5
1E5A B9         SBC     (X),(Y)
1E5B BA BE      MOVW    YA,$BE
1E5D 08 03      OR      A,#$03
1E5F AB 00      INC     $00
1E61 FA D4 D6   MOV     $D6,$D4
1E64 E8 64      MOV     A,#$64
1E66 3F 22 1B   CALL    $1B22
1E69 8F 0C 26   MOV     $26,#$0C
1E6C 8F 00 27   MOV     $27,#$00
1E6F 6F         RET
1E70 EB 27      MOV     Y,$27
1E72 F6 5D 1E   MOV     A,$1E5D+Y
1E75 64 26      CMP     A,$26
1E77 D0 1B      BNE     $1E94
1E79 AB 27      INC     $27
1E7B F6 5F 1E   MOV     A,$1E5F+Y
1E7E D0 04      BNE     $1E84
1E80 A2 46      SET1    $46.#5
1E82 2F 10      BRA     $1E94
1E84 78 08 26   CMP     $26,#$08
1E87 D0 07      BNE     $1E90
1E89 2D         PUSH    A
1E8A E8 0A      MOV     A,#$0A
1E8C 3F 39 1C   CALL    $1C39
1E8F AE         POP     A
1E90 FD         MOV     Y,A
1E91 3F 22 1C   CALL    $1C22
1E94 8B 26      DEC     $26
1E96 D0 06      BNE     $1E9E
1E98 3F 6C 1B   CALL    $1B6C
1E9B 8F 00 D5   MOV     $D5,#$00
1E9E 6F         RET
1E9F FA D4 D6   MOV     $D6,$D4
1EA2 8F 00 D1   MOV     $D1,#$00
1EA5 8F 26 26   MOV     $26,#$26
1EA8 E8 2D      MOV     A,#$2D
1EAA 5F 22 1B   JMP     $1B22
1EAD 8B 26      DEC     $26
1EAF D0 05      BNE     $1EB6
1EB1 93 D4 E4   BBC     $D4,#4,$1E98
1EB4 2F EC      BRA     $1EA2
1EB6 F8 26      MOV     X,$26
1EB8 C8 22      CMP     X,#$22
1EBA D0 0E      BNE     $1ECA
1EBC E8 02      MOV     A,#$02
1EBE 3F 39 1C   CALL    $1C39
1EC1 8D B9      MOV     Y,#$B9
1EC3 E8 00      MOV     A,#$00
1EC5 DA 2A      MOVW    $2A,YA
1EC7 5F 22 1C   JMP     $1C22
1ECA B0 D2      BCS     $1E9E
1ECC 8D 00      MOV     Y,#$00
1ECE E8 28      MOV     A,#$28
1ED0 7A 2A      ADDW    YA,$2A
1ED2 DA 2A      MOVW    $2A,YA
1ED4 5F 26 1C   JMP     $1C26
1ED7 5F 61 1E   JMP     $1E61
1EDA 5F 70 1E   JMP     $1E70
1EDD 5F A8 1D   JMP     $1DA8
1EE0 5F CE 1D   JMP     $1DCE
1EE3 8F 00 D6   MOV     $D6,#$00
1EE6 8F 00 D1   MOV     $D1,#$00
1EE9 6F         RET
;
1EEA C3 01 F6   BBS     $01,#6,$1EE3
1EED E4 06      MOV     A,$06
1EEF 28 CB      AND     A,#$CB
1EF1 D0 3F      BNE     $1F32
1EF3 E4 D5      MOV     A,$D5
1EF5 44 D4      EOR     A,$D4
1EF7 24 D4      AND     A,$D4
1EF9 C4 13      MOV     $13,A
1EFB FA D4 D5   MOV     $D5,$D4
1EFE E4 D6      MOV     A,$D6
1F00 68 30      CMP     A,#$30
1F02 F0 DC      BEQ     $1EE0
1F04 E4 D4      MOV     A,$D4
1F06 28 30      AND     A,#$30
1F08 68 30      CMP     A,#$30
1F0A F0 D1      BEQ     $1EDD
1F0C 83 13 90   BBS     $13,#4,$1E9F
1F0F 83 D6 9B   BBS     $D6,#4,$1EAD
1F12 E4 D0      MOV     A,$D0
1F14 EB D2      MOV     Y,$D2
1F16 C4 D2      MOV     $D2,A
1F18 04 D1      OR      A,$D1
1F1A D0 0B      BNE     $1F27
1F1C E4 06      MOV     A,$06
1F1E D0 12      BNE     $1F32
1F20 C3 13 B4   BBS     $13,#6,$1ED7
1F23 C3 D6 B4   BBS     $D6,#6,$1EDA
1F26 6F         RET
1F27 8F 00 47   MOV     $47,#$00
1F2A 7E D0      CMP     Y,$D0
1F2C D0 05      BNE     $1F33
1F2E F8 D1      MOV     X,$D1
1F30 D0 29      BNE     $1F5B
1F32 6F         RET
1F33 E4 D0      MOV     A,$D0
1F35 F0 F7      BEQ     $1F2E
1F37 C4 D1      MOV     $D1,A
1F39 1C         ASL     A
1F3A FD         MOV     Y,A
1F3B F6 C3 1F   MOV     A,$1FC3+Y
1F3E C4 2A      MOV     $2A,A
1F40 F6 C4 1F   MOV     A,$1FC4+Y
1F43 C4 2B      MOV     $2B,A
1F45 1A 2A      DECW    $2A
1F47 8F 02 2C   MOV     $2C,#$02
1F4A A2 1C      SET1    $1C.#5
1F4C B2 49      CLR1    $49.#5
1F4E A2 46      SET1    $46.#5
1F50 6F         RET
1F51 3F 72 1B   CALL    $1B72
1F54 E8 00      MOV     A,#$00
1F56 C4 0A      MOV     $0A,A
1F58 C4 D5      MOV     $D5,A
1F5A 6F         RET
1F5B 6E 2C 57   DBNZ    $2C,$1FB5
1F5E 3A 2A      INCW    $2A
1F60 CD 00      MOV     X,#$00
1F62 E7 2A      MOV     A,[$2A+X]
1F64 F0 EB      BEQ     $1F51
1F66 30 19      BMI     $1F81
1F68 C4 2D      MOV     $2D,A
1F6A 8F 02 2E   MOV     $2E,#$02
1F6D 3A 2A      INCW    $2A
1F6F E7 2A      MOV     A,[$2A+X]
1F71 30 0E      BMI     $1F81
1F73 8D 50      MOV     Y,#$50
1F75 3F 39 0A   CALL    $0A39
1F78 8D 51      MOV     Y,#$51
1F7A 3F 39 0A   CALL    $0A39
1F7D 3A 2A      INCW    $2A
1F7F E7 2A      MOV     A,[$2A+X]
1F81 68 C9      CMP     A,#$C9
1F83 F0 2D      BEQ     $1FB2
1F85 68 C8      CMP     A,#$C8
1F87 F0 29      BEQ     $1FB2
1F89 68 FF      CMP     A,#$FF
1F8B D0 07      BNE     $1F94
1F8D E4 D0      MOV     A,$D0
1F8F F0 C0      BEQ     $1F51
1F91 5F 33 1F   JMP     $1F33
1F94 68 E0      CMP     A,#$E0
1F96 D0 0B      BNE     $1FA3
1F98 3A 2A      INCW    $2A
1F9A E7 2A      MOV     A,[$2A+X]
1F9C CD 0A      MOV     X,#$0A
1F9E 3F 7C 0C   CALL    $0C7C
1FA1 2F BB      BRA     $1F5E
1FA3 CD 0A      MOV     X,#$0A
1FA5 D5 61 03   MOV     $0361+X,A
1FA8 E8 00      MOV     A,#$00
1FAA D5 60 03   MOV     $0360+X,A
1FAD 3F AB 09   CALL    $09AB
1FB0 A2 45      SET1    $45.#5
1FB2 FA 2D 2C   MOV     $2C,$2D
1FB5 69 2E 2C   CMP     $2C,$2E
1FB8 D0 0A      BNE     $1FC4
1FBA 8D 01      MOV     Y,#$01
1FBC F7 2A      MOV     A,[$2A]+Y
1FBE 68 C8      CMP     A,#$C8
1FC0 F0 02      BEQ     $1FC4
1FC2 A2 46      SET1    $46.#5
1FC4 6F         RET
;
1FC5 C9 1F D0 1F
1FC9 E0 03 0C 0A BB C9 00
1FD0 E0 00 18 14 A3 06
; song ptrs?
1FD6 C9 FF	; extra life?
1FD8 EA 05
1FDA 22 06
1FDC D7 06	; you lose
1FDE C0 3C	; title
1FE0 80 A0	; ranking
1FE2 00 00
1FE4 BC 37
1FE6 FA 1F	; ending
1FE8 36 25
1FEA 99 2D
1FEC 19 34
1FEE 2D A2	; port town
1FF0 5A A8	; red canyon
1FF2 AF AE	; white land 1
1FF4 33 B4	; white land 2
1FF6 81 BA	; fire field
1FF8 B3 C2	; death wind
;
1FFA 4A 20 1A 20  3A 20 3A 20  0A 20 FF 00  FC 1F 00 00
200A 5A 20 9B 20  B4 20 22 21  6E 21 00 00  00 00 00 00
201A BC
201B 21
201C DC         DEC     Y
201D 21         TCALL   $2
201E 06         OR      A,(X)
201F 22 26      SET1    $26.#1
2021 22 32      SET1    $32.#1
2023 22 00      SET1    $00.#1
2025 00         NOP
2026 00         NOP
2027 00         NOP
2028 00         NOP
2029 00         NOP
202A 3E 22      CMP     X,$22
202C 49 22 61   EOR     $61,$22
202F 22 71      SET1    $71.#1
2031 22 92      SET1    $92.#1
2033 22 00      SET1    $00.#1
2035 00         NOP
2036 00         NOP
2037 00         NOP
2038 00         NOP
2039 00         NOP
203A B3 22 BE   BBC     $22,#5,$1FFB
203D 22 D4      SET1    $D4.#1
203F 22 E4      SET1    $E4.#1
2041 22 1D      SET1    $1D.#1
2043 23 00 00   BBS     $00,#1,$2046
2046 00         NOP
2047 00         NOP
2048 00         NOP
2049 00         NOP
204A 56 23 84   EOR     A,$8423+Y
204D 23 A4 23   BBS     $A4,#1,$2073
2050 C2 23      SET1    $23.#6
2052 CC 23 00   MOV     $0023,Y
2055 00         NOP
2056 00         NOP
2057 00         NOP
2058 00         NOP
2059 00         NOP
205A EF         SLEEP
205B D6 23 01   MOV     $0123+Y,A
205E 88 88      ADC     A,#$88
2060 88 88      ADC     A,#$88
2062 88 8A      ADC     A,#$8A
2064 88 83      ADC     A,#$83
2066 EF         SLEEP
2067 F9 23      MOV     X,$23+Y
2069 02 C8      SET1    $C8.#0
206B 88 88      ADC     A,#$88
206D 88 88      ADC     A,#$88
206F 8A 88 83   EOR1    C,$0388.#4
2072 80         SETC
2073 80         SETC
2074 80         SETC
2075 80         SETC
2076 81         TCALL   $8
2077 81         TCALL   $8
2078 81         TCALL   $8
2079 81         TCALL   $8
207A 88 88      ADC     A,#$88
207C 88 88      ADC     A,#$88
207E 88 88      ADC     A,#$88
2080 88 88      ADC     A,#$88
2082 8F 8F 8F   MOV     $8F,#$8F
2085 8F 8A 8A   MOV     $8A,#$8A
2088 8A 8A 88   EOR1    C,$088A.#4
208B 88 88      ADC     A,#$88
208D 88 88      ADC     A,#$88
208F 88 88      ADC     A,#$88
2091 88 88      ADC     A,#$88
2093 88 88      ADC     A,#$88
2095 88 89      ADC     A,#$89
2097 89 89 89   ADC     $89,$89
209A 00         NOP
209B 18 7F CA   OR      $CA,#$7F
209E CD 0C      MOV     X,#$0C
20A0 C9 CA CD   MOV     $CDCA,X
20A3 CA EF 02   MOV1    $02EF.#0,C
20A6 24 0B      AND     A,$0B
20A8 18 CA CD   OR      $CD,#$CA
20AB 0C C9 E0   ASL     $E0C9
20AE D5 98 96   MOV     $9698+X,A
20B1 06         OR      A,(X)
20B2 95 95 E1   ADC     A,$E195+X
20B5 0A 18 7F   OR1     C,$1F18.#3
20B8 B6 24 C9   SBC     A,$C924+Y
20BB 0C B4 B6   ASL     $B6B4
20BE B7 18      SBC     A,[$18]+Y
20C0 B9         SBC     (X),(Y)
20C1 24 C9      AND     A,$C9
20C3 0C B4 B6   ASL     $B6B4
20C6 B7 18      SBC     A,[$18]+Y
20C8 BB 24      INC     $24+X
20CA C9 0C B6   MOV     $B60C,X
20CD B7 BB      SBC     A,[$BB]+Y
20CF 18 BC 24   OR      $24,#$BC
20D2 C9 0C B7   MOV     $B70C,X
20D5 BB BC      INC     $BC+X
20D7 18 BE 24   OR      $24,#$BE
20DA C9 0C A9   MOV     $A90C,X
20DD AE         POP     A
20DE B0 18      BCS     $20F8
20E0 B2 24      CLR1    $24.#5
20E2 C9 0C AE   MOV     $AE0C,X
20E5 B2 B5      CLR1    $B5.#5
20E7 18 BA 24   OR      $24,#$BA
20EA C9 0C B2   MOV     $B20C,X
20ED B5 BA 18   SBC     A,$18BA+X
20F0 BE         DAS     A
20F1 24 C9      AND     A,$C9
20F3 0C B5 BA   ASL     $BAB5
20F6 BE         DAS     A
20F7 12 BF      CLR1    $BF.#0
20F9 BE         DAS     A
20FA 0C BC 12   ASL     $12BC
20FD BA B8      MOVW    YA,$B8
20FF 0C BA 12   ASL     $12BA
2102 B7 B5      SBC     A,[$B5]+Y
2104 0C B3 12   ASL     $12B3
2107 B2 B0      CLR1    $B0.#5
2109 0C AE 12   ASL     $12AE
210C B0 B2      BCS     $20C0
210E 0C B3 12   ASL     $12B3
2111 B0 B2      BCS     $20C5
2113 0C B7 60   ASL     $60B7
2116 BC         INC     A
2117 30 C9      BMI     $20E2
2119 08 BF      OR      A,#$BF
211B 08 5F      OR      A,#$5F
211D BD         MOV     SP,X
211E BB BA      INC     $BA+X
2120 B8 B6 18   SBC     $18,#$B6
2123 C9 0C 7F   MOV     $7F0C,X
2126 B4 3C      SBC     A,$3C+X
2128 B6 18 C9   SBC     A,$C918+Y
212B 0C B7 3C   ASL     $3CB7
212E B9         SBC     (X),(Y)
212F 18 C9 0C   OR      $0C,#$C9
2132 B4 3C      SBC     A,$3C+X
2134 B6 18 C9   SBC     A,$C918+Y
2137 0C B7 3C   ASL     $3CB7
213A B9         SBC     (X),(Y)
213B EF         SLEEP
213C 0B 24      ASL     $24
213E 02 ED      SET1    $ED.#0
2140 96 E0 03   ADC     A,$03E0+Y
2143 12 B7      CLR1    $B7.#0
2145 B5 0C B3   SBC     A,$B30C+X
2148 12 B0      CLR1    $B0.#0
214A B0 0C      BCS     $2158
214C B0 12      BCS     $2160
214E B0 AB      BCS     $20FB
2150 0C AB 12   ASL     $12AB
2153 A9 A9 0C   SBC     $0C,$A9
2156 A6         SBC     A,(X)
2157 12 A7      CLR1    $A7.#0
2159 A9 0C AB   SBC     $AB,$0C
215C 12 A7      CLR1    $A7.#0
215E A9 0C B0   SBC     $B0,$0C
2161 60         CLRC
2162 B3 30 C9   BBC     $30,#5,$212E
2165 08 B8      OR      A,#$B8
2167 08 5D      OR      A,#$5D
2169 B6 B4 B1   SBC     A,$B1B4+Y
216C AF         MOV     (X)+,A
216D AE         POP     A
216E E0         CLRV
216F D7 18      MOV     [$18]+Y,A
2171 C9 0C 7F   MOV     $7F0C,X
2174 B0 3C      BCS     $21B2
2176 B2 18      CLR1    $18.#5
2178 C9 0C B4   MOV     $B40C,X
217B 3C         ROL     A
217C B6 18 C9   SBC     A,$C918+Y
217F 0C B0 3C   ASL     $3CB0
2182 B2 18      CLR1    $18.#5
2184 C9 0C B4   MOV     $B40C,X
2187 3C         ROL     A
2188 B6 EF 18   SBC     A,$18EF+Y
218B 24 02      AND     A,$02
218D ED         NOTC
218E 96 E0 06   ADC     A,$06E0+Y
2191 12 BC      CLR1    $BC.#0
2193 BA 0C      MOVW    YA,$0C
2195 B7 12      SBC     A,[$12]+Y
2197 B3 B3 0C   BBC     $B3,#5,$21A6
219A B3 12 B3   BBC     $12,#5,$2150
219D B0 0C      BCS     $21AB
219F B0 12      BCS     $21B3
21A1 AE         POP     A
21A2 AE         POP     A
21A3 0C A9 12   ASL     $12A9
21A6 AB AE      INC     $AE
21A8 0C B0 12   ASL     $12B0
21AB AB AE      INC     $AE
21AD 0C B3 60   ASL     $60B3
21B0 B7 30      SBC     A,[$30]+Y
21B2 C9 08 BB   MOV     $BB08,X
21B5 08 5D      OR      A,#$5D
21B7 BA B8      MOVW    YA,$B8
21B9 B6 B4 B1   SBC     A,$B1B4+Y
21BC E1         TCALL   $E
21BD 0C E5 F3   ASL     $F3E5
21C0 ED         NOTC
21C1 E6         MOV     A,(X)
21C2 E0         CLRV
21C3 0A 60 7F   OR1     C,$1F60.#3
21C6 89 8E 8C   ADC     $8C,$8E
21C9 3C         ROL     A
21CA 8E         POP     PSW
21CB 18 8B 0C   OR      $0C,#$8B
21CE 8A 60 89   EOR1    C,$0960.#4
21D1 8E         POP     PSW
21D2 87 3C      ADC     A,[$3C+X]
21D4 89 ED FF   ADC     $FF,$ED
21D7 0C 89 89   ASL     $8989
21DA 87 00      ADC     A,[$00+X]
21DC EA 00 E1   NOT1    $0100.#7
21DF 0A E0 D9   OR1     C,$19E0.#6
21E2 ED         NOTC
21E3 8A 0C 7F   EOR1    C,$1F0C.#3
21E6 A1         TCALL   $A
21E7 A1         TCALL   $A
21E8 A1         TCALL   $A
21E9 A1         TCALL   $A
21EA A1         TCALL   $A
21EB A1         TCALL   $A
21EC A1         TCALL   $A
21ED A1         TCALL   $A
21EE A1         TCALL   $A
21EF A1         TCALL   $A
21F0 A1         TCALL   $A
21F1 A1         TCALL   $A
21F2 A1         TCALL   $A
21F3 A1         TCALL   $A
21F4 A1         TCALL   $A
21F5 A4 A4      SBC     A,$A4
21F7 A4 A4      SBC     A,$A4
21F9 A4 A4      SBC     A,$A4
21FB A4 A4      SBC     A,$A4
21FD A1         TCALL   $A
21FE EF         SLEEP
21FF 25 24 02   AND     A,$0224
2202 EF         SLEEP
2203 2E 24 01   CBNE    $24,$2207
2206 EA 00 E1   NOT1    $0100.#7
2209 08 ED      OR      A,#$ED
220B C8 E0      CMP     X,#$E0
220D 10 E4      BPL     $21F3
220F 60         CLRC
2210 7F         RETI
2211 95 9A 98   ADC     A,$989A+X
2214 3C         ROL     A
2215 9A 18      SUBW    YA,$18
2217 97 0C      ADC     A,[$0C]+Y
2219 96 60 95   ADC     A,$9560+Y
221C 9A 93      SUBW    YA,$93
221E 3C         ROL     A
221F 95 ED FC   ADC     A,$FCED+X
2222 0C 95 95   ASL     $9595
2225 87 EA      ADC     A,[$EA+X]
2227 00         NOP
2228 E1         TCALL   $E
2229 02 E0      SET1    $E0.#0
222B D9 ED      MOV     $ED+Y,X
222D 8A EF 47   EOR1    C,$07EF.#2
2230 24 01      AND     A,$01
2232 EA 00 E1   NOT1    $0100.#7
2235 12 E0      CLR1    $E0.#0
2237 D9 ED      MOV     $ED+Y,X
2239 8A EF 8A   EOR1    C,$0AEF.#4
223C 24 01      AND     A,$01
223E E1         TCALL   $E
223F 09 EF D6   OR      $D6,$EF
2242 23 01 EF   BBS     $01,#1,$2234
2245 CD 24      MOV     X,#$24
2247 02 00      SET1    $00.#0
2249 E1         TCALL   $E
224A 0B ED      ASL     $ED
224C FF         STOP
224D 18 7F CA   OR      $CA,#$7F
2250 CD 0C      MOV     X,#$0C
2252 CA CA 18   MOV1    $18CA.#0,C
2255 CD CA      MOV     X,#$CA
2257 CD 0C      MOV     X,#$0C
2259 C9 CA CD   MOV     $CDCA,X
225C CA EF DE   MOV1    $1EEF.#6,C
225F 24 03      AND     A,$03
2261 EA F4 E3   NOT1    $03F4.#7
2264 0C 1E 32   ASL     $321E
2267 E1         TCALL   $E
2268 0A E0 03   OR1     C,$03E0.#0
226B ED         NOTC
226C E1         TCALL   $E
226D EF         SLEEP
226E EE         POP     Y
226F 24 01      AND     A,$01
2271 ED         NOTC
2272 A0         EI
2273 E1         TCALL   $E
2274 07 18      OR      A,[$18+X]
2276 C9 0C 7F   MOV     $7F0C,X
2279 A8 3C      SBC     A,#$3C
227B AA 18 C9   MOV1    C,$0918.#6
227E 0C AB 3C   ASL     $3CAB
2281 AD 18      CMP     Y,#$18
2283 C9 0C A8   MOV     $A80C,X
2286 3C         ROL     A
2287 AA 18 C9   MOV1    C,$0918.#6
228A 0C AB 3C   ASL     $3CAB
228D AD EF      CMP     Y,#$EF
228F 1C         ASL     A
2290 25 02 ED   AND     A,$ED02
2293 A0         EI
2294 E1         TCALL   $E
2295 02 18      SET1    $18.#0
2297 C9 0C 7F   MOV     $7F0C,X
229A A4 3C      SBC     A,$3C
229C A6         SBC     A,(X)
229D 18 C9 0C   OR      $0C,#$C9
22A0 A8 3C      SBC     A,#$3C
22A2 AA 18 C9   MOV1    C,$0918.#6
22A5 0C A4 3C   ASL     $3CA4
22A8 A6         SBC     A,(X)
22A9 18 C9 0C   OR      $0C,#$C9
22AC A8 3C      SBC     A,#$3C
22AE AA EF 29   MOV1    C,$09EF.#1
22B1 25 02 ED   AND     A,$ED02
22B4 FA EF D6   MOV     $D6,$EF
22B7 23 01 EF   BBS     $01,#1,$22A9
22BA CD 24      MOV     X,#$24
22BC 02 00      SET1    $00.#0
22BE ED         NOTC
22BF FF         STOP
22C0 18 7F CA   OR      $CA,#$7F
22C3 CD 0C      MOV     X,#$0C
22C5 CA CA 18   MOV1    $18CA.#0,C
22C8 CD CA      MOV     X,#$CA
22CA CD 0C      MOV     X,#$0C
22CC C9 CA CD   MOV     $CDCA,X
22CF CA EF DE   MOV1    $1EEF.#6,C
22D2 24 03      AND     A,$03
22D4 EA F4 E3   NOT1    $03F4.#7
22D7 0C 1E 32   ASL     $321E
22DA E1         TCALL   $E
22DB 0A E0 03   OR1     C,$03E0.#0
22DE ED         NOTC
22DF FF         STOP
22E0 EF         SLEEP
22E1 EE         POP     Y
22E2 24 01      AND     A,$01
22E4 EA F4 E3   NOT1    $03F4.#7
22E7 0C 1E 32   ASL     $321E
22EA E1         TCALL   $E
22EB 06         OR      A,(X)
22EC E0         CLRV
22ED D7 ED      MOV     [$ED]+Y,A
22EF 8C 24 7F   DEC     $7F24
22F2 B7 B7      SBC     A,[$B7]+Y
22F4 18 B7 24   OR      $24,#$B7
22F7 B7 B7      SBC     A,[$B7]+Y
22F9 18 B7 24   OR      $24,#$B7
22FC B9         SBC     (X),(Y)
22FD B9         SBC     (X),(Y)
22FE 18 B9 30   OR      $30,#$B9
2301 B7 18      SBC     A,[$18]+Y
2303 C9 06 B4   MOV     $B406,X
2306 B7 B9      SBC     A,[$B9]+Y
2308 B9         SBC     (X),(Y)
2309 24 BC      AND     A,$BC
230B BA 18      MOVW    YA,$18
230D C0         DI
230E 24 BE      AND     A,$BE
2310 BC         INC     A
2311 18 BA 24   OR      $24,#$BA
2314 BC         INC     A
2315 BA 18      MOVW    YA,$18
2317 B7 24      SBC     A,[$24]+Y
2319 B7 B4      SBC     A,[$B4]+Y
231B 18 B4 EA   OR      $EA,#$B4
231E F4 E3      MOV     A,$E3+X
2320 0C 1E 32   ASL     $321E
2323 E1         TCALL   $E
2324 0E E0 D7   TSET1   $D7E0
2327 ED         NOTC
2328 8C 24 7F   DEC     $7F24
232B B4 B4      SBC     A,$B4+X
232D 18 B4 24   OR      $24,#$B4
2330 B4 B4      SBC     A,$B4+X
2332 18 B4 24   OR      $24,#$B4
2335 B4 B7      SBC     A,$B7+X
2337 18 B4 30   OR      $30,#$B4
233A B4 18      SBC     A,$18+X
233C C9 06 B0   MOV     $B006,X
233F B2 B4      CLR1    $B4.#5
2341 B6 24 B7   SBC     A,$B724+Y
2344 B5 18 BC   SBC     A,$BC18+X
2347 24 BA      AND     A,$BA
2349 B7 18      SBC     A,[$18]+Y
234B B5 24 B7   SBC     A,$B724+X
234E B5 18 B4   SBC     A,$B418+X
2351 24 B4      AND     A,$B4
2353 B2 18      CLR1    $18.#5
2355 B0 FA      BCS     $2351
2357 11         TCALL   $1
2358 E9 03 F5   MOV     X,$F503
235B 3F 35 35   CALL    $3535
235E F7 05      MOV     A,[$05]+Y
2360 28 00      AND     A,#$00
2362 E1         TCALL   $E
2363 0D         PUSH    PSW
2364 E5 F3 E7   MOV     A,$E7F3
2367 28 ED      AND     A,#$ED
2369 E6         MOV     A,(X)
236A E0         CLRV
236B 0A 60 7F   OR1     C,$1F60.#3
236E 89 8E 8C   ADC     $8C,$8E
2371 3C         ROL     A
2372 8E         POP     PSW
2373 18 8B 0C   OR      $0C,#$8B
2376 8A 60 89   EOR1    C,$0960.#4
2379 8E         POP     PSW
237A 87 3C      ADC     A,[$3C+X]
237C 89 ED FF   ADC     $FF,$ED
237F 0C 89 89   ASL     $8989
2382 87 00      ADC     A,[$00+X]
2384 E1         TCALL   $E
2385 0A E0 D9   OR1     C,$19E0.#6
2388 ED         NOTC
2389 8A 0C 7F   EOR1    C,$1F0C.#3
238C A1         TCALL   $A
238D A1         TCALL   $A
238E A1         TCALL   $A
238F A1         TCALL   $A
2390 A1         TCALL   $A
2391 A1         TCALL   $A
2392 A1         TCALL   $A
2393 A1         TCALL   $A
2394 EF         SLEEP
2395 2E 24 01   CBNE    $24,$2399
2398 A1         TCALL   $A
2399 A1         TCALL   $A
239A A1         TCALL   $A
239B A1         TCALL   $A
239C A1         TCALL   $A
239D A1         TCALL   $A
239E A1         TCALL   $A
239F A1         TCALL   $A
23A0 EF         SLEEP
23A1 2E 24 01   CBNE    $24,$23A5
23A4 E1         TCALL   $E
23A5 07 ED      OR      A,[$ED+X]
23A7 C8 E0      CMP     X,#$E0
23A9 10 E4      BPL     $238F
23AB 60         CLRC
23AC 7F         RETI
23AD 95 9A 98   ADC     A,$989A+X
23B0 3C         ROL     A
23B1 9A 18      SUBW    YA,$18
23B3 97 0C      ADC     A,[$0C]+Y
23B5 96 60 95   ADC     A,$9560+Y
23B8 9A 93      SUBW    YA,$93
23BA 3C         ROL     A
23BB 95 ED FF   ADC     A,$FFED+X
23BE 0C 95 95   ASL     $9595
23C1 87 E1      ADC     A,[$E1+X]
23C3 02 E0      SET1    $E0.#0
23C5 D9 ED      MOV     $ED+Y,X
23C7 8A EF 47   EOR1    C,$07EF.#2
23CA 24 01      AND     A,$01
23CC E1         TCALL   $E
23CD 12 E0      CLR1    $E0.#0
23CF D9 ED      MOV     $ED+Y,X
23D1 8A EF 8A   EOR1    C,$0AEF.#4
23D4 24 01      AND     A,$01
23D6 0C 7F 89   ASL     $897F
23D9 89 89 89   ADC     $89,$89
23DC 89 8B 87   ADC     $87,$8B
23DF 84 C8      ADC     A,$C8
23E1 84 84      ADC     A,$84
23E3 84 84      ADC     A,$84
23E5 84 84      ADC     A,$84
23E7 84 89      ADC     A,$89
23E9 89 89 89   ADC     $89,$89
23EC 89 8B 87   ADC     $87,$8B
23EF 84 C8      ADC     A,$C8
23F1 84 84      ADC     A,$84
23F3 84 84      ADC     A,$84
23F5 84 84      ADC     A,$84
23F7 84 00      ADC     A,$00
23F9 C8 88      CMP     X,#$88
23FB 88 88      ADC     A,#$88
23FD 88 8A      ADC     A,#$8A
23FF 88 83      ADC     A,#$83
2401 00         NOP
2402 18 CA CD   OR      $CD,#$CA
2405 0C C9 CA   ASL     $CAC9
2408 CD CA      MOV     X,#$CA
240A 00         NOP
240B 18 C9 0C   OR      $0C,#$C9
240E B2 3C      CLR1    $3C.#5
2410 B5 18 C9   SBC     A,$C918+X
2413 0C B5 3C   ASL     $3CB5
2416 BA 00      MOVW    YA,$00
2418 18 C9 0C   OR      $0C,#$C9
241B AE         POP     A
241C 3C         ROL     A
241D B2 18      CLR1    $18.#5
241F C9 0C B2   MOV     $B20C,X
2422 3C         ROL     A
2423 B5 00 A1   SBC     A,$A100+X
2426 A1         TCALL   $A
2427 A1         TCALL   $A
2428 A1         TCALL   $A
2429 A1         TCALL   $A
242A A1         TCALL   $A
242B A1         TCALL   $A
242C A1         TCALL   $A
242D 00         NOP
242E A1         TCALL   $A
242F A1         TCALL   $A
2430 A1         TCALL   $A
2431 A1         TCALL   $A
2432 A1         TCALL   $A
2433 A1         TCALL   $A
2434 A1         TCALL   $A
2435 A4 A4      SBC     A,$A4
2437 A4 A4      SBC     A,$A4
2439 A4 A4      SBC     A,$A4
243B A4 A4      SBC     A,$A4
243D A1         TCALL   $A
243E A1         TCALL   $A
243F A1         TCALL   $A
2440 A1         TCALL   $A
2441 A1         TCALL   $A
2442 A1         TCALL   $A
2443 A1         TCALL   $A
2444 A1         TCALL   $A
2445 A1         TCALL   $A
2446 00         NOP
2447 0C 7F A8   ASL     $A87F
244A A8 A8      SBC     A,#$A8
244C A8 A8      SBC     A,#$A8
244E A8 A8      SBC     A,#$A8
2450 AA AA AA   MOV1    C,$0AAA.#5
2453 AA AA AA   MOV1    C,$0AAA.#5
2456 AA AA AB   MOV1    C,$0BAA.#5
2459 AB AB      INC     $AB
245B AB AB      INC     $AB
245D AB AB      INC     $AB
245F AB AA      INC     $AA
2461 AA AA AA   MOV1    C,$0AAA.#5
2464 AA AA AA   MOV1    C,$0AAA.#5
2467 AA AA AB   MOV1    C,$0BAA.#5
246A AB AB      INC     $AB
246C AB AB      INC     $AB
246E AB AB      INC     $AB
2470 AA AA AA   MOV1    C,$0AAA.#5
2473 AA AA AA   MOV1    C,$0AAA.#5
2476 AA AA AB   MOV1    C,$0BAA.#5
2479 AB AB      INC     $AB
247B AB AB      INC     $AB
247D AB AB      INC     $AB
247F AB AA      INC     $AA
2481 AA AA AA   MOV1    C,$0AAA.#5
2484 AA AA AA   MOV1    C,$0AAA.#5
2487 AA AA 00   MOV1    C,$00AA.#0
248A 0C 7F A4   ASL     $A47F
248D A4 A4      SBC     A,$A4
248F A4 A4      SBC     A,$A4
2491 A4 A4      SBC     A,$A4
2493 A6         SBC     A,(X)
2494 A6         SBC     A,(X)
2495 A6         SBC     A,(X)
2496 A6         SBC     A,(X)
2497 A6         SBC     A,(X)
2498 A6         SBC     A,(X)
2499 A6         SBC     A,(X)
249A A6         SBC     A,(X)
249B A8 A8      SBC     A,#$A8
249D A8 A8      SBC     A,#$A8
249F A8 A8      SBC     A,#$A8
24A1 A8 A8      SBC     A,#$A8
24A3 A6         SBC     A,(X)
24A4 A6         SBC     A,(X)
24A5 A6         SBC     A,(X)
24A6 A6         SBC     A,(X)
24A7 A6         SBC     A,(X)
24A8 A6         SBC     A,(X)
24A9 A6         SBC     A,(X)
24AA A6         SBC     A,(X)
24AB A6         SBC     A,(X)
24AC A4 A4      SBC     A,$A4
24AE A4 A4      SBC     A,$A4
24B0 A4 A4      SBC     A,$A4
24B2 A4 A6      SBC     A,$A6
24B4 A6         SBC     A,(X)
24B5 A6         SBC     A,(X)
24B6 A6         SBC     A,(X)
24B7 A6         SBC     A,(X)
24B8 A6         SBC     A,(X)
24B9 A6         SBC     A,(X)
24BA A6         SBC     A,(X)
24BB A8 A8      SBC     A,#$A8
24BD A8 A8      SBC     A,#$A8
24BF A8 A8      SBC     A,#$A8
24C1 A8 A8      SBC     A,#$A8
24C3 A6         SBC     A,(X)
24C4 A6         SBC     A,(X)
24C5 A6         SBC     A,(X)
24C6 A6         SBC     A,(X)
24C7 A6         SBC     A,(X)
24C8 A6         SBC     A,(X)
24C9 A6         SBC     A,(X)
24CA A6         SBC     A,(X)
24CB A6         SBC     A,(X)
24CC 00         NOP
24CD 8A 8A 8A   EOR1    C,$0A8A.#4
24D0 8A 8A 8C   EOR1    C,$0C8A.#4
24D3 8A 85 C8   EOR1    C,$0885.#6
24D6 85 85 85   ADC     A,$8585
24D9 85 85 85   ADC     A,$8585
24DC 85 00 18   ADC     A,$1800
24DF CA CD 0C   MOV1    $0CCD.#0,C
24E2 CA CA 18   MOV1    $18CA.#0,C
24E5 CD CA      MOV     X,#$CA
24E7 CD 0C      MOV     X,#$0C
24E9 C9 CA CD   MOV     $CDCA,X
24EC CA 00 24   MOV1    $0400.#1,C
24EF 7F         RETI
24F0 BE         DAS     A
24F1 BC         INC     A
24F2 18 BB 24   OR      $24,#$BB
24F5 B9         SBC     (X),(Y)
24F6 BB 18      INC     $18+X
24F8 BC         INC     A
24F9 24 BE      AND     A,$BE
24FB BC         INC     A
24FC 18 BB 30   OR      $30,#$BB
24FF B9         SBC     (X),(Y)
2500 18 C9 06   OR      $06,#$C9
2503 B9         SBC     (X),(Y)
2504 BB BC      INC     $BC+X
2506 BE         DAS     A
2507 24 C0      AND     A,$C0
2509 BE         DAS     A
250A 18 C3 24   OR      $24,#$C3
250D C1         TCALL   $C
250E C0         DI
250F 18 BE 24   OR      $24,#$BE
2512 C0         DI
2513 BE         DAS     A
2514 18 BC 24   OR      $24,#$BC
2517 BB B9      INC     $B9+X
2519 18 B7 00   OR      $00,#$B7
251C 18 C9 0C   OR      $0C,#$C9
251F A6         SBC     A,(X)
2520 3C         ROL     A
2521 A8 18      SBC     A,#$18
2523 C9 0C A9   MOV     $A90C,X
2526 3C         ROL     A
2527 AB 00      INC     $00
2529 18 C9 0C   OR      $0C,#$C9
252C A2 3C      SET1    $3C.#5
252E A4 18      SBC     A,$18
2530 C9 0C A6   MOV     $A60C,X
2533 3C         ROL     A
2534 A8 00      SBC     A,#$00
2536 4C 25 5C   LSR     $5C25
2539 25 6C 25   AND     A,$256C
253C 7C         ROR     A
253D 25 8C 25   AND     A,$258C
2540 9C         DEC     A
2541 25 AC 25   AND     A,$25AC
2544 BC         INC     A
2545 25 FF 00   AND     A,$00FF
2548 36 25 00   AND     A,$0025+Y
254B 00         NOP
254C CC 25 E8   MOV     $E825,Y
254F 25 F6 25   AND     A,$25F6
2552 02 26      SET1    $26.#0
2554 10 26      BPL     $257C
2556 00         NOP
2557 00         NOP
2558 00         NOP
2559 00         NOP
255A 00         NOP
255B 00         NOP
255C 1F 26 35   JMP     [$3526+X]
255F 26         AND     A,(X)
2560 45 26 51   EOR     A,$5126
2563 26         AND     A,(X)
2564 5D         MOV     X,A
2565 26         AND     A,(X)
2566 00         NOP
2567 00         NOP
2568 00         NOP
2569 00         NOP
256A 00         NOP
256B 00         NOP
256C 69 26 A9   CMP     $A9,$26
256F 26         AND     A,(X)
2570 EC 26 13   MOV     Y,$1326
2573 27 3A      AND     A,[$3A+X]
2575 27 00      AND     A,[$00+X]
2577 00         NOP
2578 00         NOP
2579 00         NOP
257A 00         NOP
257B 00         NOP
257C 76 27 C0   CMP     A,$C027+Y
257F 27 CA      AND     A,[$CA+X]
2581 27 FC      AND     A,[$FC+X]
2583 27 68      AND     A,[$68+X]
2585 28 00      AND     A,#$00
2587 00         NOP
2588 00         NOP
2589 00         NOP
258A 00         NOP
258B 00         NOP
258C 82 28      SET1    $28.#4
258E BE         DAS     A
258F 28 1B      AND     A,#$1B
2591 29 46 29   AND     $29,$46
2594 95 29 00   ADC     A,$0029+X
2597 00         NOP
2598 00         NOP
2599 00         NOP
259A 00         NOP
259B 00         NOP
259C CF         MUL     YA
259D 29 F1 29   AND     $29,$F1
25A0 0C 2A 21   ASL     $212A
25A3 2A 7F 2A   OR1     C,/$0A7F.#1
25A6 00         NOP
25A7 00         NOP
25A8 00         NOP
25A9 00         NOP
25AA 00         NOP
25AB 00         NOP
25AC 9A 2A      SUBW    YA,$2A
25AE BA 2A      MOVW    YA,$2A
25B0 D5 2A E1   MOV     $E12A+X,A
25B3 2A 42 2B   OR1     C,/$0B42.#1
25B6 00         NOP
25B7 00         NOP
25B8 00         NOP
25B9 00         NOP
25BA 00         NOP
25BB 00         NOP
25BC 54 2B      EOR     A,$2B+X
25BE 75 2B A1   CMP     A,$A12B+X
25C1 2B E8      ROL     $E8
25C3 2B 47      ROL     $47
25C5 2C 00 00   ROL     $0000
25C8 00         NOP
25C9 00         NOP
25CA 00         NOP
25CB 00         NOP
25CC FA 11 E9   MOV     $E9,$11
25CF 01         TCALL   $0
25D0 F3 E7 2E   BBC     $E7,#7,$2601
25D3 F5 3F 29   MOV     A,$293F+X
25D6 29 F7 05   AND     $05,$F7
25D9 1E 00 E1   CMP     X,$E100
25DC 0B E5      ASL     $E5
25DE EA EF A2   NOT1    $02EF.#5
25E1 2C 01 EF   ROL     $EF01
25E4 B2 2C      CLR1    $2C.#5
25E6 01         TCALL   $0
25E7 00         NOP
25E8 F3 E1 09   BBC     $E1,#7,$25F4
25EB E0         CLRV
25EC 0A EF C0   OR1     C,$00EF.#6
25EF 2C 01 18   ROL     $1801
25F2 CE         POP     X
25F3 CE         POP     X
25F4 CE         POP     X
25F5 CE         POP     X
25F6 E4 E0      MOV     A,$E0
25F8 D0 ED      BNE     $25E7
25FA E6         MOV     A,(X)
25FB EF         SLEEP
25FC DA 2C      MOVW    $2C,YA
25FE 01         TCALL   $0
25FF C8 54      CMP     X,#$54
2601 C9 E4 E1   MOV     $E1E4,X
2604 0E E0 D0   TSET1   $D0E0
2607 ED         NOTC
2608 DC         DEC     Y
2609 EF         SLEEP
260A ED         NOTC
260B 2C 01 C8   ROL     $C801
260E 54 C9      EOR     A,$C9+X
2610 E4 E1      MOV     A,$E1
2612 06         OR      A,(X)
2613 E0         CLRV
2614 D0 ED      BNE     $2603
2616 DC         DEC     Y
2617 F3 EF 00   BBC     $EF,#7,$261A
261A 2D         PUSH    A
261B 01         TCALL   $0
261C C8 54      CMP     X,#$54
261E C9 EF A2   MOV     $A2EF,X
2621 2C 01 CA   ROL     $CA01
2624 CD 0C      MOV     X,#$0C
2626 CA CA CD   MOV1    $0DCA.#6,C
2629 CA 18 CA   MOV1    $0A18.#6,C
262C 0C CD 18   ASL     $18CD
262F CA 0C CD   MOV1    $0D0C.#6,C
2632 CA CD 00   MOV1    $00CD.#0,C
2635 E1         TCALL   $E
2636 09 E0 0A   OR      $0A,$E0
2639 EF         SLEEP
263A C0         DI
263B 2C 01 C8   ROL     $C801
263E 84 87      ADC     A,$87
2640 89 8C 8B   ADC     $8B,$8C
2643 87 89      ADC     A,[$89+X]
2645 EF         SLEEP
2646 DA 2C      MOVW    $2C,YA
2648 01         TCALL   $0
2649 C8 A1      CMP     X,#$A1
264B A4 A6      SBC     A,$A6
264D A9 A8 A4   SBC     $A4,$A8
2650 A6         SBC     A,(X)
2651 EF         SLEEP
2652 ED         NOTC
2653 2C 01 C8   ROL     $C801
2656 A8 AB      SBC     A,#$AB
2658 AD B0      CMP     Y,#$B0
265A AF         MOV     (X)+,A
265B AB AD      INC     $AD
265D EF         SLEEP
265E 00         NOP
265F 2D         PUSH    A
2660 01         TCALL   $0
2661 E0         CLRV
2662 0F         BRK
2663 60         CLRC
2664 95 F9 02   ADC     A,$02F9+X
2667 5A BC      CMPW    YA,$BC
2669 EF         SLEEP
266A A2 2C      SET1    $2C.#5
266C 01         TCALL   $0
266D CA CD 0C   MOV1    $0CCD.#0,C
2670 CA CA CD   MOV1    $0DCA.#6,C
2673 CA C8 CA   MOV1    $0AC8.#6,C
2676 CA CA CA   MOV1    $0ACA.#6,C
2679 CA C9 CA   MOV1    $0AC9.#6,C
267C 18 CA CD   OR      $CD,#$CA
267F 0C CA CA   ASL     $CACA
2682 CD CA      MOV     X,#$CA
2684 C8 06      CMP     X,#$06
2686 CA CA 18   MOV1    $18CA.#0,C
2689 CD CA      MOV     X,#$CA
268B 0C CD CA   ASL     $CACD
268E 18 CA CD   OR      $CD,#$CA
2691 0C CA CA   ASL     $CACA
2694 CD CA      MOV     X,#$CA
2696 E5 96 06   MOV     A,$0696
2699 C9 E6 5A   MOV     $5AE6,X
269C FF         STOP
269D C9 0D CA   MOV     $CA0D,X
26A0 0C CA CA   ASL     $CACA
26A3 CA CA CA   MOV1    $0ACA.#6,C
26A6 0B CA      ASL     $CA
26A8 00         NOP
26A9 E0         CLRV
26AA 0A 18 7F   OR1     C,$1F18.#3
26AD 89 CE 0C   ADC     $0C,$CE
26B0 CE         POP     X
26B1 CE         POP     X
26B2 89 87 18   ADC     $18,$87
26B5 CE         POP     X
26B6 CE         POP     X
26B7 CE         POP     X
26B8 CE         POP     X
26B9 E0         CLRV
26BA 0A 87 CE   OR1     C,$0E87.#6
26BD 0C CE CE   ASL     $CECE
26C0 E0         CLRV
26C1 0A 87 89   OR1     C,$0987.#4
26C4 C8 84      CMP     X,#$84
26C6 87 18      ADC     A,[$18+X]
26C8 89 0C 84   ADC     $84,$0C
26CB 8C 8B 18   DEC     $188B
26CE 89 CE CE   ADC     $CE,$CE
26D1 E0         CLRV
26D2 0A 0C 89   OR1     C,$090C.#4
26D5 87 18      ADC     A,[$18+X]
26D7 CE         POP     X
26D8 CE         POP     X
26D9 CE         POP     X
26DA 0C CE 06   ASL     $06CE
26DD CE         POP     X
26DE CE         POP     X
26DF E0         CLRV
26E0 0A 18 87   OR1     C,$0718.#4
26E3 CE         POP     X
26E4 CE         POP     X
26E5 E0         CLRV
26E6 0A 0C 87   OR1     C,$070C.#4
26E9 84 60      ADC     A,$60
26EB C8 E0      CMP     X,#$E0
26ED D0 EF      BNE     $26DE
26EF DA 2C      MOVW    $2C,YA
26F1 01         TCALL   $0
26F2 C8 A8      CMP     X,#$A8
26F4 AB 18      INC     $18
26F6 AD 0C      CMP     Y,#$0C
26F8 A8 B0      SBC     A,#$B0
26FA AF         MOV     (X)+,A
26FB 18 B9 30   OR      $30,#$B9
26FE C9 0C B9   MOV     $B90C,X
2701 B7 C8      SBC     A,[$C8]+Y
2703 24 C9      AND     A,$C9
2705 10 BC      BPL     $26C3
2707 BB B7      INC     $B7+X
2709 0C B7 B7   ASL     $B7B7
270C 30 C9      BMI     $26D7
270E 0C B7 B4   ASL     $B4B7
2711 60         CLRC
2712 C8 E0      CMP     X,#$E0
2714 D0 EF      BNE     $2705
2716 ED         NOTC
2717 2C 01 C8   ROL     $C801
271A A1         TCALL   $A
271B A4 18      SBC     A,$18
271D A6         SBC     A,(X)
271E 0C A1 A9   ASL     $A9A1
2721 A8 18      SBC     A,#$18
2723 B4 30      SBC     A,$30+X
2725 C9 0C B4   MOV     $B40C,X
2728 B2 C8      CLR1    $C8.#5
272A 24 C9      AND     A,$C9
272C 10 B2      BPL     $26E0
272E B2 B2      CLR1    $B2.#5
2730 0C B2 B2   ASL     $B2B2
2733 30 C9      BMI     $26FE
2735 0C B2 AF   ASL     $AFB2
2738 60         CLRC
2739 C8 E0      CMP     X,#$E0
273B D0 EF      BNE     $272C
273D 00         NOP
273E 2D         PUSH    A
273F 01         TCALL   $0
2740 C8 E0      CMP     X,#$E0
2742 D5 F1 06   MOV     $06F1+X,A
2745 06         OR      A,(X)
2746 FF         STOP
2747 9D         MOV     X,SP
2748 9D         MOV     X,SP
2749 98 98 98   ADC     $98,#$98
274C 97 97      ADC     A,[$97]+Y
274E F3 E0 D0   BBC     $E0,#7,$2721
2751 18 AD 30   OR      $30,#$AD
2754 C9 0C AD   MOV     $AD0C,X
2757 AB C8      INC     $C8
2759 24 C9      AND     A,$C9
275B F4 05      MOV     A,$05+X
275D 10 BC      BPL     $271B
275F BB B7      INC     $B7+X
2761 F4 00      MOV     A,$00+X
2763 0C AB AB   ASL     $ABAB
2766 48 C9      EOR     A,#$C9
2768 0C C9 0D   ASL     $0DC9
276B CD 0C      MOV     X,#$0C
276D CD CD      MOV     X,#$CD
276F CD CD      MOV     X,#$CD
2771 CD 06      MOV     X,#$06
2773 CD 05      MOV     X,#$05
2775 CD E5      MOV     X,#$E5
2777 EA E0 0A   NOT1    $0AE0.#0
277A 0C 7F 89   ASL     $897F
277D 89 89 89   ADC     $89,$89
2780 89 89 89   ADC     $89,$89
2783 89 89 89   ADC     $89,$89
2786 89 89 89   ADC     $89,$89
2789 89 89 89   ADC     $89,$89
278C 87 87      ADC     A,[$87+X]
278E 87 87      ADC     A,[$87+X]
2790 87 87      ADC     A,[$87+X]
2792 87 87      ADC     A,[$87+X]
2794 C8 8C      CMP     X,#$8C
2796 8B 87      DEC     $87
2798 8C 8B 18   DEC     $188B
279B 87 0C      ADC     A,[$0C+X]
279D 89 89 89   ADC     $89,$89
27A0 89 89 89   ADC     $89,$89
27A3 89 89 89   ADC     $89,$89
27A6 89 89 89   ADC     $89,$89
27A9 89 89 89   ADC     $89,$89
27AC 89 87 87   ADC     $87,$87
27AF 87 18      ADC     A,[$18+X]
27B1 87 0C      ADC     A,[$0C+X]
27B3 87 87      ADC     A,[$87+X]
27B5 87 C9      ADC     A,[$C9+X]
27B7 87 8C      ADC     A,[$8C+X]
27B9 8B 12      DEC     $12
27BB 8C 8B 0C   DEC     $0C8B
27BE 85 00 E1   ADC     A,$E100
27C1 0B EF      ASL     $EF
27C3 A2 2C      SET1    $2C.#5
27C5 01         TCALL   $0
27C6 EF         SLEEP
27C7 B2 2C      CLR1    $2C.#5
27C9 03 ED FF   BBS     $ED,#0,$27CB
27CC E3 0F 19   BBS     $0F,#7,$27E8
27CF 28 24      AND     A,#$24
27D1 7F         RETI
27D2 B4 18      SBC     A,$18+X
27D4 B2 0C      CLR1    $0C.#5
27D6 B0 AF      BCS     $2787
27D8 B0 30      BCS     $280A
27DA C8 0C      CMP     X,#$0C
27DC AF         MOV     (X)+,A
27DD AD AB      CMP     Y,#$AB
27DF AF         MOV     (X)+,A
27E0 3C         ROL     A
27E1 C8 0C      CMP     X,#$0C
27E3 B0 AF      BCS     $2794
27E5 AB 60      INC     $60
27E7 C8 18      CMP     X,#$18
27E9 B4 0C      SBC     A,$0C+X
27EB AD 18      CMP     Y,#$18
27ED B4 0C      SBC     A,$0C+X
27EF B7 B6      SBC     A,[$B6]+Y
27F1 B2 30      CLR1    $30.#5
27F3 B4 0C      SBC     A,$0C+X
27F5 C9 B0 B2   MOV     $B2B0,X
27F8 B4 60      SBC     A,$60+X
27FA B2 C8      CLR1    $C8.#5
27FC E0         CLRV
27FD 07 ED      OR      A,[$ED+X]
27FF 82 E1      SET1    $E1.#4
2801 02 0C      SET1    $0C.#0
2803 7F         RETI
2804 AD E1      CMP     Y,#$E1
2806 0A B4 E1   OR1     C,$01B4.#7
2809 12 B9      CLR1    $B9.#0
280B E1         TCALL   $E
280C 0A AD E1   OR1     C,$01AD.#7
280F 02 B4      SET1    $B4.#0
2811 E1         TCALL   $E
2812 0A B9 E1   OR1     C,$01B9.#7
2815 12 AD      CLR1    $AD.#0
2817 E1         TCALL   $E
2818 0A B4 EF   OR1     C,$0FB4.#7
281B 13 2D 01   BBC     $2D,#0,$281F
281E E1         TCALL   $E
281F 02 B7      SET1    $B7.#0
2821 E1         TCALL   $E
2822 0A AB E1   OR1     C,$01AB.#7
2825 12 B2      CLR1    $B2.#0
2827 E1         TCALL   $E
2828 0A B7 E1   OR1     C,$01B7.#7
282B 02 AB      SET1    $AB.#0
282D E1         TCALL   $E
282E 0A B2 E1   OR1     C,$01B2.#7
2831 02 B7      SET1    $B7.#0
2833 E1         TCALL   $E
2834 02 B2      SET1    $B2.#0
2836 E1         TCALL   $E
2837 02 AD      SET1    $AD.#0
2839 E1         TCALL   $E
283A 0A B4 E1   OR1     C,$01B4.#7
283D 12 B9      CLR1    $B9.#0
283F E1         TCALL   $E
2840 0A AD E1   OR1     C,$01AD.#7
2843 02 B4      SET1    $B4.#0
2845 E1         TCALL   $E
2846 0A B9 E1   OR1     C,$01B9.#7
2849 12 AD      CLR1    $AD.#0
284B E1         TCALL   $E
284C 0A B4 EF   OR1     C,$0FB4.#7
284F 13 2D 01   BBC     $2D,#0,$2853
2852 E1         TCALL   $E
2853 02 B7      SET1    $B7.#0
2855 E1         TCALL   $E
2856 0A AB E1   OR1     C,$01AB.#7
2859 12 B2      CLR1    $B2.#0
285B E1         TCALL   $E
285C 0A B7 E1   OR1     C,$01B7.#7
285F 02 AB      SET1    $AB.#0
2861 E1         TCALL   $E
2862 0A B2 E1   OR1     C,$01B2.#7
2865 02 18      SET1    $18.#0
2867 B7 60      SBC     A,[$60]+Y
2869 C9 C9 C9   MOV     $C9C9,X
286C C9 C9 C9   MOV     $C9C9,X
286F C9 F1 00   MOV     $00F1,X
2872 0C FF E0   ASL     $E0FF
2875 D5 0C C9   MOV     $C90C+X,A
2878 0C 7F 9C   ASL     $9C7F
287B 9C         DEC     A
287C 98 12 98   ADC     $98,#$12
287F 97 0C      ADC     A,[$0C]+Y
2881 93 18 7F   BBC     $18,#4,$2903
2884 85 85 0C   ADC     A,$0C85
2887 C9 85 C9   MOV     $C985,X
288A 87 30      ADC     A,[$30+X]
288C C8 0C      CMP     X,#$0C
288E C9 87 C9   MOV     $C987,X
2891 87 18      ADC     A,[$18+X]
2893 85 85 0C   ADC     A,$0C85
2896 C9 85 C9   MOV     $C985,X
2899 84 30      ADC     A,$30
289B C8 0C      CMP     X,#$0C
289D C9 82 C9   MOV     $C982,X
28A0 84 85      ADC     A,$85
28A2 85 85 18   ADC     A,$1885
28A5 85 0C 85   ADC     A,$850C
28A8 85 85 87   ADC     A,$8785
28AB 87 87      ADC     A,[$87+X]
28AD 18 87 0C   OR      $0C,#$87
28B0 87 87      ADC     A,[$87+X]
28B2 87 60      ADC     A,[$60+X]
28B4 89 18 C8   ADC     $C8,$18
28B7 C9 12 89   MOV     $8912,X
28BA 87 0C      ADC     A,[$0C+X]
28BC 86         ADC     A,(X)
28BD 00         NOP
28BE 0C 7F CA   ASL     $CA7F
28C1 CE         POP     X
28C2 18 CD 0C   OR      $0C,#$CD
28C5 CA CD CA   MOV1    $0ACD.#6,C
28C8 CD C8      MOV     X,#$C8
28CA F1         TCALL   $F
28CB 00         NOP
28CC 0C FF E0   ASL     $E0FF
28CF D5 9D 9D   MOV     $9D9D+X,A
28D2 9A 9A      SUBW    YA,$9A
28D4 97 97      ADC     A,[$97]+Y
28D6 93 CA CE   BBC     $CA,#4,$28A7
28D9 18 CD 0C   OR      $0C,#$CD
28DC CA CD CA   MOV1    $0ACD.#6,C
28DF CD CA      MOV     X,#$CA
28E1 CD 18      MOV     X,#$18
28E3 CD F1      MOV     X,#$F1
28E5 00         NOP
28E6 0C FF E0   ASL     $E0FF
28E9 D5 0C 9D   MOV     $9D0C+X,A
28EC 9A 9A      SUBW    YA,$9A
28EE 93 18 CA   BBC     $18,#4,$28BB
28F1 CD 0C      MOV     X,#$0C
28F3 CA CA CD   MOV1    $0DCA.#6,C
28F6 CA C8 CA   MOV1    $0AC8.#6,C
28F9 18 CD 0C   OR      $0C,#$CD
28FC CA CD CA   MOV1    $0ACD.#6,C
28FF CA CA CD   MOV1    $0DCA.#6,C
2902 CA CD C9   MOV1    $09CD.#6,C
2905 E0         CLRV
2906 D5 F1 00   MOV     $00F1+X,A
2909 0C FF 06   ASL     $06FF
290C 98 98 0C   ADC     $0C,#$98
290F 97 95      ADC     A,[$95]+Y
2911 F3 C9 CA   BBC     $C9,#7,$28DE
2914 CA CA 12   MOV1    $12CA.#0,C
2917 CA CA 0C   MOV1    $0CCA.#0,C
291A CA ED A0   MOV1    $00ED.#5,C
291D F3 E0 D0   BBC     $E0,#7,$28F0
2920 EF         SLEEP
2921 44 2D      EOR     A,$2D
2923 02 24      SET1    $24.#0
2925 AD 18      CMP     Y,#$18
2927 AD 24      CMP     Y,#$24
2929 AD AF      CMP     Y,#$AF
292B 18 AF 24   OR      $24,#$AF
292E AF         MOV     (X)+,A
292F E5 96 E6   MOV     A,$E696
2932 96 FF 60   ADC     A,$60FF+Y
2935 B1         TCALL   $B
2936 0C C8 CD   ASL     $CDC8
2939 CD CD      MOV     X,#$CD
293B E0         CLRV
293C D5 F1 00   MOV     $00F1+X,A
293F 0C FF 12   ASL     $12FF
2942 98 95 0C   ADC     $0C,#$95
2945 93 ED C8   BBC     $ED,#4,$2910
2948 E0         CLRV
2949 D7 E1      MOV     [$E1]+Y,A
294B 0A 08 7F   OR1     C,$1F08.#3
294E B9         SBC     (X),(Y)
294F B4 B0      SBC     A,$B0+X
2951 B9         SBC     (X),(Y)
2952 B4 B0      SBC     A,$B0+X
2954 0C B9 BB   ASL     $BBB9
2957 BC         INC     A
2958 E3 18 1E   BBS     $18,#7,$2979
295B 64 BB      CMP     A,$BB
295D 30 C8      BMI     $2927
295F B7 08      SBC     A,[$08]+Y
2961 B9         SBC     (X),(Y)
2962 B4 B0      SBC     A,$B0+X
2964 B9         SBC     (X),(Y)
2965 B4 B0      SBC     A,$B0+X
2967 0C B9 BB   ASL     $BBB9
296A C0         DI
296B BE         DAS     A
296C 30 C8      BMI     $2936
296E F9 1E      MOV     X,$1E+Y
2970 12 BB      CLR1    $BB.#0
2972 0C BB BC   ASL     $BCBB
2975 BB B7      INC     $B7+X
2977 18 B5 0C   OR      $0C,#$B5
297A B7 18      SBC     A,[$18]+Y
297C B9         SBC     (X),(Y)
297D 0C BB BC   ASL     $BCBB
2980 C0         DI
2981 18 BE 0C   OR      $0C,#$BE
2984 BC         INC     A
2985 18 BB 0C   OR      $0C,#$BB
2988 BC         INC     A
2989 BB B7      INC     $B7+X
298B E3 1E 32   BBS     $1E,#7,$29C0
298E 28 60      AND     A,#$60
2990 B9         SBC     (X),(Y)
2991 0C C8 54   ASL     $54C8
2994 C9 ED A0   MOV     $A0ED,X
2997 E0         CLRV
2998 D0 F3      BNE     $298D
299A 18 4F AD   OR      $AD,#$4F
299D AD 0C      CMP     Y,#$0C
299F C9 0C 7F   MOV     $7F0C,X
29A2 AD C9      CMP     Y,#$C9
29A4 AF         MOV     (X)+,A
29A5 30 C8      BMI     $296F
29A7 0C C9 AF   ASL     $AFC9
29AA C9 AF 18   MOV     $18AF,X
29AD 4F AD      PCALL   $AD
29AF AD 0C      CMP     Y,#$0C
29B1 C9 0C 7F   MOV     $7F0C,X
29B4 AD C9      CMP     Y,#$C9
29B6 AB 30      INC     $30
29B8 C8 0C      CMP     X,#$0C
29BA C9 AB C9   MOV     $C9AB,X
29BD AB 24      INC     $24
29BF B5 18 B5   SBC     A,$B518+X
29C2 24 B5      AND     A,$B5
29C4 B7 18      SBC     A,[$18]+Y
29C6 B7 24      SBC     A,[$24]+Y
29C8 B7 60      SBC     A,[$60]+Y
29CA B9         SBC     (X),(Y)
29CB 0C C8 54   ASL     $54C8
29CE C9 E5 EA   MOV     $EAE5,X
29D1 E0         CLRV
29D2 0A EF 57   OR1     C,$17EF.#2
29D5 2D         PUSH    A
29D6 01         TCALL   $0
29D7 EF         SLEEP
29D8 6C 2D 02   ROR     $022D
29DB EF         SLEEP
29DC 76 2D 02   CMP     A,$022D+Y
29DF 84 84      ADC     A,$84
29E1 84 18      ADC     A,$18
29E3 84 0C      ADC     A,$0C
29E5 84 84      ADC     A,$84
29E7 84 C9      ADC     A,$C9
29E9 84 87      ADC     A,$87
29EB 84 8C      ADC     A,$8C
29ED 8B 89      DEC     $89
29EF 85 00 18   ADC     A,$1800
29F2 7F         RETI
29F3 CA CD 0C   MOV1    $0CCD.#0,C
29F6 CA CA CD   MOV1    $0DCA.#6,C
29F9 CA EF 80   MOV1    $00EF.#4,C
29FC 2D         PUSH    A
29FD 03 C9 CD   BBS     $C9,#0,$29CD
2A00 CD CD      MOV     X,#$CD
2A02 E0         CLRV
2A03 D5 F1 00   MOV     $00F1+X,A
2A06 0C FF 8E   ASL     $8EFF
2A09 8C 8B 89   DEC     $898B
2A0C F3 E0 D3   BBC     $E0,#7,$29E2
2A0F ED         NOTC
2A10 82 E3      SET1    $E3.#4
2A12 00         NOP
2A13 28 3C      AND     A,#$3C
2A15 60         CLRC
2A16 7F         RETI
2A17 AD C8      CMP     Y,#$C8
2A19 AB C8      INC     $C8
2A1B AD C8      CMP     Y,#$C8
2A1D EF         SLEEP
2A1E 8E         POP     PSW
2A1F 2D         PUSH    A
2A20 01         TCALL   $0
2A21 F3 E0 D6   BBC     $E0,#7,$29FA
2A24 0C C9 0C   ASL     $0CC9
2A27 7F         RETI
2A28 B4 B0      SBC     A,$B0+X
2A2A AD 18      CMP     Y,#$18
2A2C B0 B4      BCS     $29E2
2A2E F9 0E      MOV     X,$0E+Y
2A30 0A B2 B2   OR1     C,$12B2.#5
2A33 0C B9 24   ASL     $24B9
2A36 B4 F9      SBC     A,$F9+X
2A38 14 10      OR      A,$10+X
2A3A B2 18      CLR1    $18.#5
2A3C B2 0C      CLR1    $0C.#5
2A3E AF         MOV     (X)+,A
2A3F B0 B2      BCS     $29F3
2A41 18 AB 0C   OR      $0C,#$AB
2A44 B7 18      SBC     A,[$18]+Y
2A46 B5 06 B4   SBC     A,$B406+X
2A49 B5 0C B4   SBC     A,$B40C+X
2A4C B2 B0      CLR1    $B0.#5
2A4E AF         MOV     (X)+,A
2A4F 24 AB      AND     A,$AB
2A51 0C AD B4   ASL     $B4AD
2A54 B9         SBC     (X),(Y)
2A55 24 BC      AND     A,$BC
2A57 F9 14      MOV     X,$14+Y
2A59 10 BE      BPL     $2A19
2A5B 18 BE C0   OR      $C0,#$BE
2A5E F9 0E      MOV     X,$0E+Y
2A60 0A B9 0C   OR1     C,$0CB9.#0
2A63 B9         SBC     (X),(Y)
2A64 24 BE      AND     A,$BE
2A66 18 BC 0C   OR      $0C,#$BC
2A69 BB B4      INC     $B4+X
2A6B B7 B9      SBC     A,[$B9]+Y
2A6D BB BC      INC     $BC+X
2A6F BB BE      INC     $BE+X
2A71 18 C8 F9   OR      $F9,#$C8
2A74 0E 0A BB   TSET1   $BB0A
2A77 0C BB 18   ASL     $18BB
2A7A B7 0C      SBC     A,[$0C]+Y
2A7C B5 18 B4   SBC     A,$B418+X
2A7F E0         CLRV
2A80 D3 ED 82   BBC     $ED,#6,$2A05
2A83 F3 E3 00   BBC     $E3,#7,$2A86
2A86 28 3C      AND     A,#$3C
2A88 60         CLRC
2A89 7F         RETI
2A8A A9 C8 A8   SBC     $A8,$C8
2A8D C8 A9      CMP     X,#$A9
2A8F C8 A8      CMP     X,#$A8
2A91 0C C8 A3   ASL     $A3C8
2A94 A6         SBC     A,(X)
2A95 A3 AB AA   BBS     $AB,#5,$2A42
2A98 A8 A6      SBC     A,#$A6
2A9A E0         CLRV
2A9B 0A EF 57   OR1     C,$17EF.#2
2A9E 2D         PUSH    A
2A9F 01         TCALL   $0
2AA0 EF         SLEEP
2AA1 6C 2D 02   ROR     $022D
2AA4 EF         SLEEP
2AA5 76 2D 02   CMP     A,$022D+Y
2AA8 84 84      ADC     A,$84
2AAA 84 18      ADC     A,$18
2AAC 84 0C      ADC     A,$0C
2AAE 84 84      ADC     A,$84
2AB0 84 C9      ADC     A,$C9
2AB2 84 87      ADC     A,$87
2AB4 84 8C      ADC     A,$8C
2AB6 8B 89      DEC     $89
2AB8 87 00      ADC     A,[$00+X]
2ABA 18 7F CA   OR      $CA,#$7F
2ABD CD 0C      MOV     X,#$0C
2ABF CA CA CD   MOV1    $0DCA.#6,C
2AC2 CA EF 80   MOV1    $00EF.#4,C
2AC5 2D         PUSH    A
2AC6 03 C9 CD   BBS     $C9,#0,$2A96
2AC9 CD CD      MOV     X,#$CD
2ACB E0         CLRV
2ACC D5 F1 00   MOV     $00F1+X,A
2ACF 0C FF 8E   ASL     $8EFF
2AD2 8C 8B 89   DEC     $898B
2AD5 60         CLRC
2AD6 7F         RETI
2AD7 AD C8      CMP     Y,#$C8
2AD9 AB C8      INC     $C8
2ADB AD C8      CMP     Y,#$C8
2ADD EF         SLEEP
2ADE 8E         POP     PSW
2ADF 2D         PUSH    A
2AE0 01         TCALL   $0
2AE1 0C 7F B2   ASL     $B27F
2AE4 F9 02      MOV     X,$02+Y
2AE6 0A B4 B4   OR1     C,$14B4.#5
2AE9 B2 F9      CLR1    $F9.#5
2AEB 02 0A      SET1    $0A.#0
2AED B4 B4      SBC     A,$B4+X
2AEF B2 F9      CLR1    $F9.#5
2AF1 02 0A      SET1    $0A.#0
2AF3 B4 B4      SBC     A,$B4+X
2AF5 B9         SBC     (X),(Y)
2AF6 B4 C8      SBC     A,$C8+X
2AF8 B4 B9      SBC     A,$B9+X
2AFA B4 BC      SBC     A,$BC+X
2AFC B9         SBC     (X),(Y)
2AFD B4 B0      SBC     A,$B0+X
2AFF B2 F9      CLR1    $F9.#5
2B01 02 0A      SET1    $0A.#0
2B03 B4 B4      SBC     A,$B4+X
2B05 B2 F9      CLR1    $F9.#5
2B07 02 0A      SET1    $0A.#0
2B09 B4 B4      SBC     A,$B4+X
2B0B B2 F9      CLR1    $F9.#5
2B0D 02 0A      SET1    $0A.#0
2B0F B4 B4      SBC     A,$B4+X
2B11 B7 B2      SBC     A,[$B2]+Y
2B13 C8 B4      CMP     X,#$B4
2B15 B7 B4      SBC     A,[$B4]+Y
2B17 BB B7      INC     $B7+X
2B19 B4 BB      SBC     A,$BB+X
2B1B B5 B9 BC   SBC     A,$BCB9+X
2B1E B5 B9 BC   SBC     A,$BCB9+X
2B21 B5 B9 BC   SBC     A,$BCB9+X
2B24 B5 B9 BC   SBC     A,$BCB9+X
2B27 18 BE F9   OR      $F9,#$BE
2B2A 0A 0E BB   OR1     C,$1B0E.#5
2B2D BB 0C      INC     $0C+X
2B2F B4 B7      SBC     A,$B7+X
2B31 BB B4      INC     $B4+X
2B33 B7 BB      SBC     A,[$BB]+Y
2B35 B4 B7      SBC     A,$B7+X
2B37 BB B4      INC     $B4+X
2B39 B7 BB      SBC     A,[$BB]+Y
2B3B 18 BC F9   OR      $F9,#$BC
2B3E 0C 0C BB   ASL     $BB0C
2B41 BB 60      INC     $60+X
2B43 7F         RETI
2B44 B5 C8 B4   SBC     A,$B4C8+X
2B47 C8 B5      CMP     X,#$B5
2B49 C8 B4      CMP     X,#$B4
2B4B 0C C8 A3   ASL     $A3C8
2B4E A6         SBC     A,(X)
2B4F A3 AB AA   BBS     $AB,#5,$2AFC
2B52 A8 A6      SBC     A,#$A6
2B54 E0         CLRV
2B55 0A EF 57   OR1     C,$17EF.#2
2B58 2D         PUSH    A
2B59 01         TCALL   $0
2B5A EF         SLEEP
2B5B 6C 2D 02   ROR     $022D
2B5E EF         SLEEP
2B5F 76 2D 02   CMP     A,$022D+Y
2B62 84 84      ADC     A,$84
2B64 84 84      ADC     A,$84
2B66 10 84      BPL     $2AEC
2B68 84 84      ADC     A,$84
2B6A 18 C9 0C   OR      $0C,#$C9
2B6D 84 18      ADC     A,$18
2B6F 87 0C      ADC     A,[$0C+X]
2B71 84 18      ADC     A,$18
2B73 87 00      ADC     A,[$00+X]
2B75 18 7F CA   OR      $CA,#$7F
2B78 CD 0C      MOV     X,#$0C
2B7A CA CA CD   MOV1    $0DCA.#6,C
2B7D CA EF 80   MOV1    $00EF.#4,C
2B80 2D         PUSH    A
2B81 02 C9      SET1    $C9.#0
2B83 CA 18 CD   MOV1    $0D18.#6,C
2B86 CA CD 0C   MOV1    $0CCD.#0,C
2B89 C9 CA 18   MOV     $18CA,X
2B8C CD 10      MOV     X,#$10
2B8E CD CD      MOV     X,#$CD
2B90 CD 18      MOV     X,#$18
2B92 CA CA 0C   MOV1    $0CCA.#0,C
2B95 CA E0 D5   MOV1    $15E0.#6,C
2B98 F1         TCALL   $F
2B99 00         NOP
2B9A 0C FF 9A   ASL     $9AFF
2B9D 08 98      OR      A,#$98
2B9F 97 95      ADC     A,[$95]+Y
2BA1 E0         CLRV
2BA2 D3 ED 8C   BBC     $ED,#6,$2B31
2BA5 18 C9 18   OR      $18,#$C9
2BA8 7F         RETI
2BA9 AD 0C      CMP     Y,#$0C
2BAB AD 18      CMP     Y,#$18
2BAD AD 0C      CMP     Y,#$0C
2BAF AD AD      CMP     Y,#$AD
2BB1 C9 18 AD   MOV     $AD18,X
2BB4 AD 0C      CMP     Y,#$0C
2BB6 AD AD      CMP     Y,#$AD
2BB8 18 C9 0C   OR      $0C,#$C9
2BBB AB C9      INC     $C9
2BBD A8 C9      SBC     A,#$C9
2BBF AB C9      INC     $C9
2BC1 18 A8 A8   OR      $A8,#$A8
2BC4 A8 A8      SBC     A,#$A8
2BC6 AD AD      CMP     Y,#$AD
2BC8 AD 0C      CMP     Y,#$0C
2BCA AD C9      CMP     Y,#$C9
2BCC 3C         ROL     A
2BCD AD 18      CMP     Y,#$18
2BCF AD 0C      CMP     Y,#$0C
2BD1 AD 30      CMP     Y,#$30
2BD3 AB 10      INC     $10
2BD5 AF         MOV     (X)+,A
2BD6 AF         MOV     (X)+,A
2BD7 AF         MOV     (X)+,A
2BD8 18 C9 0C   OR      $0C,#$C9
2BDB A6         SBC     A,(X)
2BDC 18 AB 0C   OR      $0C,#$AB
2BDF A6         SBC     A,(X)
2BE0 E3 08 1E   BBS     $08,#7,$2C01
2BE3 50 F0      BVC     $2BD5
2BE5 14 18      OR      A,$18+X
2BE7 AB 08      INC     $08
2BE9 7F         RETI
2BEA A1         TCALL   $A
2BEB A3 A4 A3   BBS     $A4,#5,$2B91
2BEE A4 A6      SBC     A,$A6
2BF0 A4 A6      SBC     A,$A6
2BF2 A8 A6      SBC     A,#$A6
2BF4 A8 AD      SBC     A,#$AD
2BF6 A6         SBC     A,(X)
2BF7 AB AD      INC     $AD
2BF9 AB AD      INC     $AD
2BFB AF         MOV     (X)+,A
2BFC AD AF      CMP     Y,#$AF
2BFE B0 AF      BCS     $2BAF
2C00 B0 B2      BCS     $2BB4
2C02 18 B4 F9   OR      $F9,#$B4
2C05 0A 0E B7   OR1     C,$170E.#5
2C08 0C B7 B4   ASL     $B4B7
2C0B C9 AF AB   MOV     $ABAF,X
2C0E AF         MOV     (X)+,A
2C0F B2 F9      CLR1    $F9.#5
2C11 02 0A      SET1    $0A.#0
2C13 B4 B4      SBC     A,$B4+X
2C15 18 B7 0C   OR      $0C,#$B7
2C18 BB B7      INC     $B7+X
2C1A BC         INC     A
2C1B BB 18      INC     $18+X
2C1D C8 F9      CMP     X,#$F9
2C1F 0A 0E B9   OR1     C,$190E.#5
2C22 B9         SBC     (X),(Y)
2C23 10 B4      BPL     $2BD9
2C25 AD B0      CMP     Y,#$B0
2C27 18 B7 0C   OR      $0C,#$B7
2C2A B5 18 B4   SBC     A,$B418+X
2C2D 0C AD B0   ASL     $B0AD
2C30 B4 30      SBC     A,$30+X
2C32 B7 10      SBC     A,[$10]+Y
2C34 B7 B7      SBC     A,[$B7]+Y
2C36 B7 18      SBC     A,[$18]+Y
2C38 C9 0C A8   MOV     $A80C,X
2C3B 18 AB 0C   OR      $0C,#$AB
2C3E A8 E3      SBC     A,#$E3
2C40 08 1E      OR      A,#$1E
2C42 50 F0      BVC     $2C34
2C44 14 18      OR      A,$18+X
2C46 AB E0      INC     $E0
2C48 D3 ED 82   BBC     $ED,#6,$2BCD
2C4B 18 C9 18   OR      $18,#$C9
2C4E 7F         RETI
2C4F A8 0C      SBC     A,#$0C
2C51 A8 18      SBC     A,#$18
2C53 A8 0C      SBC     A,#$0C
2C55 A8 03      SBC     A,#$03
2C57 A7 09      SBC     A,[$09+X]
2C59 A8 0C      SBC     A,#$0C
2C5B C9 18 A8   MOV     $A818,X
2C5E 0C A8 A4   ASL     $A4A8
2C61 04 A6      OR      A,$A6
2C63 A7 A6      SBC     A,[$A6+X]
2C65 0C A4 18   ASL     $18A4
2C68 C9 0C A6   MOV     $A60C,X
2C6B A3 A6 A3   BBS     $A6,#5,$2C11
2C6E A6         SBC     A,(X)
2C6F A3 A3 9F   BBS     $A3,#5,$2C11
2C72 A1         TCALL   $A
2C73 9F         XCN     A
2C74 06         OR      A,(X)
2C75 A3 A2 0C   BBS     $A2,#5,$2C84
2C78 A1         TCALL   $A
2C79 9F         XCN     A
2C7A 9C         DEC     A
2C7B A8 A4      SBC     A,#$A4
2C7D A8 A4      SBC     A,#$A4
2C7F A8 A4      SBC     A,#$A4
2C81 06         OR      A,(X)
2C82 A7 A6      SBC     A,[$A6+X]
2C84 0C A4 3C   ASL     $3CA4
2C87 A8 18      SBC     A,#$18
2C89 A8 0C      SBC     A,#$0C
2C8B A8 30      SBC     A,#$30
2C8D A8 10      SBC     A,#$10
2C8F AC AC AC   INC     $ACAC
2C92 18 C9 0C   OR      $0C,#$C9
2C95 A6         SBC     A,(X)
2C96 18 AB 0C   OR      $0C,#$AB
2C99 A6         SBC     A,(X)
2C9A E3 08 1E   BBS     $08,#7,$2CBB
2C9D 50 F0      BVC     $2C8F
2C9F 14 18      OR      A,$18+X
2CA1 AB 18      INC     $18
2CA3 7F         RETI
2CA4 CA CD 0C   MOV1    $0CCD.#0,C
2CA7 CA CA CD   MOV1    $0DCA.#6,C
2CAA CA C8 CA   MOV1    $0AC8.#6,C
2CAD 18 CD CA   OR      $CA,#$CD
2CB0 CD 00      MOV     X,#$00
2CB2 CA CD 0C   MOV1    $0CCD.#0,C
2CB5 CA CA CD   MOV1    $0DCA.#6,C
2CB8 CA C8 CA   MOV1    $0AC8.#6,C
2CBB 18 CD CA   OR      $CA,#$CD
2CBE CD 00      MOV     X,#$00
2CC0 18 7F 89   OR      $89,#$7F
2CC3 CE         POP     X
2CC4 CE         POP     X
2CC5 E0         CLRV
2CC6 0A 0C 89   OR1     C,$090C.#4
2CC9 87 18      ADC     A,[$18+X]
2CCB CE         POP     X
2CCC CE         POP     X
2CCD CE         POP     X
2CCE CE         POP     X
2CCF E0         CLRV
2CD0 0A 87 CE   OR1     C,$0E87.#6
2CD3 CE         POP     X
2CD4 E0         CLRV
2CD5 0A 0C 87   OR1     C,$070C.#4
2CD8 89 00 18   ADC     $18,$00
2CDB 7F         RETI
2CDC B9         SBC     (X),(Y)
2CDD 30 C9      BMI     $2CA8
2CDF 0C B9 B7   ASL     $B7B9
2CE2 C8 54      CMP     X,#$54
2CE4 C9 18 B7   MOV     $B718,X
2CE7 30 C9      BMI     $2CB2
2CE9 0C B7 B9   ASL     $B9B7
2CEC 00         NOP
2CED 18 7F B4   OR      $B4,#$7F
2CF0 30 C9      BMI     $2CBB
2CF2 0C B4 B2   ASL     $B2B4
2CF5 C8 54      CMP     X,#$54
2CF7 C9 18 B2   MOV     $B218,X
2CFA 30 C9      BMI     $2CC5
2CFC 0C B2 B4   ASL     $B4B2
2CFF 00         NOP
2D00 18 7F AD   OR      $AD,#$7F
2D03 30 C9      BMI     $2CCE
2D05 0C AD AB   ASL     $ABAD
2D08 C8 54      CMP     X,#$54
2D0A C9 18 AB   MOV     $AB18,X
2D0D 30 C9      BMI     $2CD8
2D0F 0C AB AD   ASL     $ADAB
2D12 00         NOP
2D13 E1         TCALL   $E
2D14 02 B9      SET1    $B9.#0
2D16 E1         TCALL   $E
2D17 0A AD E1   OR1     C,$01AD.#7
2D1A 12 B4      CLR1    $B4.#0
2D1C E1         TCALL   $E
2D1D 0A B9 E1   OR1     C,$01B9.#7
2D20 02 AD      SET1    $AD.#0
2D22 E1         TCALL   $E
2D23 0A B4 E1   OR1     C,$01B4.#7
2D26 02 B9      SET1    $B9.#0
2D28 E1         TCALL   $E
2D29 0A B4 E1   OR1     C,$01B4.#7
2D2C 02 AB      SET1    $AB.#0
2D2E E1         TCALL   $E
2D2F 0A B2 E1   OR1     C,$01B2.#7
2D32 12 B7      CLR1    $B7.#0
2D34 E1         TCALL   $E
2D35 0A AB E1   OR1     C,$01AB.#7
2D38 02 B2      SET1    $B2.#0
2D3A E1         TCALL   $E
2D3B 0A B7 E1   OR1     C,$01B7.#7
2D3E 12 AB      CLR1    $AB.#0
2D40 E1         TCALL   $E
2D41 0A B2 00   OR1     C,$00B2.#0
2D44 18 4F A4   OR      $A4,#$4F
2D47 A4 0C      SBC     A,$0C
2D49 C9 0C 7F   MOV     $7F0C,X
2D4C A4 C9      SBC     A,$C9
2D4E A6         SBC     A,(X)
2D4F 30 C8      BMI     $2D19
2D51 0C C9 A6   ASL     $A6C9
2D54 C9 A6 00   MOV     $00A6,X
2D57 0C 7F 85   ASL     $857F
2D5A 85 85 18   ADC     A,$1885
2D5D 85 0C 85   ADC     A,$850C
2D60 85 85 85   ADC     A,$8585
2D63 85 85 18   ADC     A,$1885
2D66 85 0C 85   ADC     A,$850C
2D69 85 85 00   ADC     A,$0085
2D6C 84 84      ADC     A,$84
2D6E 84 18      ADC     A,$18
2D70 84 0C      ADC     A,$0C
2D72 84 84      ADC     A,$84
2D74 84 00      ADC     A,$00
2D76 85 85 85   ADC     A,$8585
2D79 18 85 0C   OR      $0C,#$85
2D7C 85 85 85   ADC     A,$8585
2D7F 00         NOP
2D80 C9 CA 18   MOV     $18CA,X
2D83 CD CA      MOV     X,#$CA
2D85 CD CA      MOV     X,#$CA
2D87 CD 0C      MOV     X,#$0C
2D89 CA CA CD   MOV1    $0DCA.#6,C
2D8C CA 00 AB   MOV1    $0B00.#5,C
2D8F 0C C8 A8   ASL     $A8C8
2D92 AB A8      INC     $A8
2D94 B0 AF      BCS     $2D45
2D96 AD AB      CMP     Y,#$AB
2D98 00         NOP
2D99 C1         TCALL   $C
2D9A 2D         PUSH    A
2D9B 01         TCALL   $0
2D9C 2E D1 2D   CBNE    $D1,$2DCC
2D9F B1         TCALL   $B
2DA0 2D         PUSH    A
2DA1 B1         TCALL   $B
2DA2 2D         PUSH    A
2DA3 E1         TCALL   $E
2DA4 2D         PUSH    A
2DA5 21         TCALL   $2
2DA6 2E F1 2D   CBNE    $F1,$2DD6
2DA9 11         TCALL   $1
2DAA 2E FF 00   CBNE    $FF,$2DAD
2DAD 99         ADC     (X),(Y)
2DAE 2D         PUSH    A
2DAF 00         NOP
2DB0 00         NOP
2DB1 31         TCALL   $3
2DB2 2E 3A 2E   CBNE    $3A,$2DE3
2DB5 65 2E 69   CMP     A,$692E
2DB8 2E 7E 2E   CBNE    $7E,$2DE9
2DBB 00         NOP
2DBC 00         NOP
2DBD 00         NOP
2DBE 00         NOP
2DBF 00         NOP
2DC0 00         NOP
2DC1 A5 2E C0   SBC     A,$C02E
2DC4 2E E7 2E   CBNE    $E7,$2DF5
2DC7 00         NOP
2DC8 00         NOP
2DC9 F3 2E 00   BBC     $2E,#7,$2DCC
2DCC 00         NOP
2DCD 00         NOP
2DCE 00         NOP
2DCF 00         NOP
2DD0 00         NOP
2DD1 F9 2E      MOV     X,$2E+Y
2DD3 02 2F      SET1    $2F.#0
2DD5 4E 2F 52   TCLR1   $522F
2DD8 2F 6A      BRA     $2E44
2DDA 2F 00      BRA     $2DDC
2DDC 00         NOP
2DDD 00         NOP
2DDE 00         NOP
2DDF 00         NOP
2DE0 00         NOP
2DE1 71         TCALL   $7
2DE2 2F A1      BRA     $2D85
2DE4 2F C4      BRA     $2DAA
2DE6 2F F4      BRA     $2DDC
2DE8 2F 35      BRA     $2E1F
2DEA 30 00      BMI     $2DEC
2DEC 00         NOP
2DED 00         NOP
2DEE 00         NOP
2DEF 00         NOP
2DF0 00         NOP
2DF1 66         CMP     A,(X)
2DF2 30 81      BMI     $2D75
2DF4 30 85      BMI     $2D7B
2DF6 30 A1      BMI     $2D99
2DF8 30 C3      BMI     $2DBD
2DFA 30 00      BMI     $2DFC
2DFC 00         NOP
2DFD 00         NOP
2DFE 00         NOP
2DFF 00         NOP
2E00 00         NOP
2E01 E1         TCALL   $E
2E02 30 EA      BMI     $2DEE
2E04 30 05      BMI     $2E0B
2E06 31         TCALL   $3
2E07 09 31 0F   OR      $0F,$31
2E0A 31         TCALL   $3
2E0B 00         NOP
2E0C 00         NOP
2E0D 00         NOP
2E0E 00         NOP
2E0F 00         NOP
2E10 00         NOP
2E11 20         CLRP
2E12 31         TCALL   $3
2E13 5F 31 63   JMP     $6331
2E16 31         TCALL   $3
2E17 8D 31      MOV     Y,#$31
2E19 B3 31 00   BBC     $31,#5,$2E1C
2E1C 00         NOP
2E1D 00         NOP
2E1E 00         NOP
2E1F 00         NOP
2E20 00         NOP
2E21 C2 31      SET1    $31.#6
2E23 D3 31 21   BBC     $31,#6,$2E47
2E26 32 27      CLR1    $27.#1
2E28 32 37      CLR1    $37.#1
2E2A 32 00      CLR1    $00.#1
2E2C 00         NOP
2E2D 00         NOP
2E2E 00         NOP
2E2F 00         NOP
2E30 00         NOP
2E31 EF         SLEEP
2E32 3D         INC     X
2E33 32 01      CLR1    $01.#1
2E35 EF         SLEEP
2E36 64 32      CMP     A,$32
2E38 03 00 E1   BBS     $00,#0,$2E1C
2E3B 0D         PUSH    PSW
2E3C 0C 7F A4   ASL     $A47F
2E3F 0C 7D A2   ASL     $A27D
2E42 9A 0C      SUBW    YA,$0C
2E44 7F         RETI
2E45 A4 0C      SBC     A,$0C
2E47 7D         MOV     A,X
2E48 A2 9A      SET1    $9A.#5
2E4A EF         SLEEP
2E4B 89 32 03   ADC     $03,$32
2E4E E2 48      SET1    $48.#7
2E50 14 06      OR      A,$06+X
2E52 7B 9A      ROR     $9A+X
2E54 06         OR      A,(X)
2E55 6B 9A      ROR     $9A
2E57 06         OR      A,(X)
2E58 7D         MOV     A,X
2E59 A2 06      SET1    $06.#5
2E5B 6D         PUSH    Y
2E5C A2 06      SET1    $06.#5
2E5E 7F         RETI
2E5F A4 06      SBC     A,$06
2E61 6F         RET
2E62 A4 24      SBC     A,$24
2E64 C9 EF B1   MOV     $B1EF,X
2E67 32 04      CLR1    $04.#1
2E69 E1         TCALL   $E
2E6A 44 E0      EOR     A,$E0
2E6C DB EF      MOV     $EF+X,Y
2E6E C6         MOV     (X),A
2E6F 32 01      CLR1    $01.#1
2E71 B5 B6 B5   SBC     A,$B5B6+X
2E74 AF         MOV     (X)+,A
2E75 B1         TCALL   $B
2E76 B3 EF D2   BBC     $EF,#5,$2E4B
2E79 32 01      CLR1    $01.#1
2E7B B5 B6 B5   SBC     A,$B5B6+X
2E7E E0         CLRV
2E7F 07 ED      OR      A,[$ED+X]
2E81 AE         POP     A
2E82 E1         TCALL   $E
2E83 0A E3 14   OR1     C,$14E3.#0
2E86 1E 1E EB   CMP     X,$EB1E
2E89 14 0A      OR      A,$0A+X
2E8B 0A 48 7F   OR1     C,$1F48.#3
2E8E AE         POP     A
2E8F 18 C8 AC   OR      $AC,#$C8
2E92 AE         POP     A
2E93 48 AC      EOR     A,#$AC
2E95 18 C8 AA   OR      $AA,#$C8
2E98 AC 48 AA   INC     $AA48
2E9B 18 C8 A9   OR      $A9,#$C8
2E9E AA 48 A9   MOV1    C,$0948.#5
2EA1 18 C8 A5   OR      $A5,#$C8
2EA4 A7 FA      SBC     A,[$FA+X]
2EA6 11         TCALL   $1
2EA7 E9 03 E5   MOV     X,$E503
2EAA F5 E7 29   MOV     A,$29E7+X
2EAD ED         NOTC
2EAE F0 F5      BEQ     $2EA5
2EB0 3F 14 14   CALL    $1414
2EB3 F7 05      MOV     A,[$05]+Y
2EB5 32 00      CLR1    $00.#1
2EB7 EF         SLEEP
2EB8 3D         INC     X
2EB9 32 01      CLR1    $01.#1
2EBB EF         SLEEP
2EBC 64 32      CMP     A,$32
2EBE 01         TCALL   $0
2EBF 00         NOP
2EC0 ED         NOTC
2EC1 FF         STOP
2EC2 EA F3 E1   NOT1    $01F3.#7
2EC5 0D         PUSH    PSW
2EC6 E0         CLRV
2EC7 D5 F1 01   MOV     $01F1+X,A
2ECA 06         OR      A,(X)
2ECB FF         STOP
2ECC EF         SLEEP
2ECD D9 32      MOV     $32+Y,X
2ECF 01         TCALL   $0
2ED0 E2 48      SET1    $48.#7
2ED2 14 06      OR      A,$06+X
2ED4 7B 9A      ROR     $9A+X
2ED6 06         OR      A,(X)
2ED7 6B 9A      ROR     $9A
2ED9 06         OR      A,(X)
2EDA 7D         MOV     A,X
2EDB A2 06      SET1    $06.#5
2EDD 6D         PUSH    Y
2EDE A2 06      SET1    $06.#5
2EE0 7F         RETI
2EE1 A4 06      SBC     A,$06
2EE3 6F         RET
2EE4 A4 24      SBC     A,$24
2EE6 C9 E0 0A   MOV     $0AE0,X
2EE9 E1         TCALL   $E
2EEA 0B ED      ASL     $ED
2EEC FF         STOP
2EED EA F4 EF   NOT1    $0FF4.#7
2EF0 11         TCALL   $1
2EF1 33 02 EF   BBC     $02,#1,$2EE3
2EF4 26         AND     A,(X)
2EF5 33 01 C9   BBC     $01,#1,$2EC1
2EF8 C9 EF 3D   MOV     $3DEF,X
2EFB 32 01      CLR1    $01.#1
2EFD EF         SLEEP
2EFE 64 32      CMP     A,$32
2F00 01         TCALL   $0
2F01 00         NOP
2F02 E1         TCALL   $E
2F03 0D         PUSH    PSW
2F04 0C 7F A4   ASL     $A47F
2F07 0C 7D A2   ASL     $A27D
2F0A 9A 0C      SUBW    YA,$0C
2F0C 7F         RETI
2F0D A4 0C      SBC     A,$0C
2F0F 7D         MOV     A,X
2F10 A2 9A      SET1    $9A.#5
2F12 E2 48      SET1    $48.#7
2F14 14 06      OR      A,$06+X
2F16 7B 9A      ROR     $9A+X
2F18 06         OR      A,(X)
2F19 6B 9A      ROR     $9A
2F1B 06         OR      A,(X)
2F1C 7D         MOV     A,X
2F1D A2 06      SET1    $06.#5
2F1F 6D         PUSH    Y
2F20 A2 06      SET1    $06.#5
2F22 7F         RETI
2F23 A4 06      SBC     A,$06
2F25 6F         RET
2F26 A4 24      SBC     A,$24
2F28 C9 E1 0D   MOV     $0DE1,X
2F2B 0C 7B A4   ASL     $A47B
2F2E A2 0C      SET1    $0C.#5
2F30 7D         MOV     A,X
2F31 9A A4      SUBW    YA,$A4
2F33 0C 7F A2   ASL     $A27F
2F36 9A E2      SUBW    YA,$E2
2F38 48 14      EOR     A,#$14
2F3A 06         OR      A,(X)
2F3B 7B 9A      ROR     $9A+X
2F3D 06         OR      A,(X)
2F3E 6B 9A      ROR     $9A
2F40 06         OR      A,(X)
2F41 7D         MOV     A,X
2F42 A2 06      SET1    $06.#5
2F44 6D         PUSH    Y
2F45 A2 06      SET1    $06.#5
2F47 7F         RETI
2F48 A4 06      SBC     A,$06
2F4A 6F         RET
2F4B A4 24      SBC     A,$24
2F4D C9 EF B1   MOV     $B1EF,X
2F50 32 02      CLR1    $02.#1
2F52 E0         CLRV
2F53 DB ED      MOV     $ED+X,Y
2F55 A0         EI
2F56 E1         TCALL   $E
2F57 07 EB      OR      A,[$EB+X]
2F59 0A 14 14   OR1     C,$1414.#0
2F5C 18 7F B3   OR      $B3,#$7F
2F5F B5 B6 B5   SBC     A,$B5B6+X
2F62 B3 B5 B3   BBC     $B5,#5,$2F18
2F65 B5 B6 B8   SBC     A,$B8B6+X
2F68 B6 B5 EF   SBC     A,$EFB5+Y
2F6B C6         MOV     (X),A
2F6C 32 01      CLR1    $01.#1
2F6E B5 B3 B1   SBC     A,$B1B3+X
2F71 EF         SLEEP
2F72 3D         INC     X
2F73 32 01      CLR1    $01.#1
2F75 EF         SLEEP
2F76 64 32      CMP     A,$32
2F78 06         OR      A,(X)
2F79 E6         MOV     A,(X)
2F7A 68 D2      CMP     A,#$D2
2F7C E1         TCALL   $E
2F7D 42 CD      SET1    $CD.#2
2F7F E1         TCALL   $E
2F80 13 CB E1   BBC     $CB,#0,$2F64
2F83 42 CD      SET1    $CD.#2
2F85 E1         TCALL   $E
2F86 13 CB E1   BBC     $CB,#0,$2F6A
2F89 42 CD      SET1    $CD.#2
2F8B E1         TCALL   $E
2F8C 13 CB E1   BBC     $CB,#0,$2F70
2F8F 42 0C      SET1    $0C.#2
2F91 7B CD      ROR     $CD+X
2F93 E1         TCALL   $E
2F94 13 0C 7F   BBC     $0C,#0,$3016
2F97 CB E1      MOV     $E1,Y
2F99 42 CD      SET1    $CD.#2
2F9B E1         TCALL   $E
2F9C 13 CB C9   BBC     $CB,#0,$2F68
2F9F CB 00      MOV     $00,Y
2FA1 EF         SLEEP
2FA2 D9 32      MOV     $32+Y,X
2FA4 01         TCALL   $0
2FA5 EF         SLEEP
2FA6 89 32 05   ADC     $05,$32
2FA9 E2 48      SET1    $48.#7
2FAB 14 06      OR      A,$06+X
2FAD 7F         RETI
2FAE 9A 06      SUBW    YA,$06
2FB0 6F         RET
2FB1 9A 06      SUBW    YA,$06
2FB3 7F         RETI
2FB4 A2 06      SET1    $06.#5
2FB6 6F         RET
2FB7 A2 06      SET1    $06.#5
2FB9 7F         RETI
2FBA A4 06      SBC     A,$06
2FBC 6F         RET
2FBD A4 24      SBC     A,$24
2FBF C9 EF 2A   MOV     $2AEF,X
2FC2 33 01 EF   BBC     $01,#1,$2FB4
2FC5 52 33      CLR1    $33.#2
2FC7 01         TCALL   $0
2FC8 18 7F 90   OR      $90,#$7F
2FCB 0C 7C 90   ASL     $907C
2FCE 18 7F 8F   OR      $8F,#$7F
2FD1 0C 7B 90   ASL     $907B
2FD4 C9 0C 4C   MOV     $4C0C,X
2FD7 90 C9      BCC     $2FA2
2FD9 90 C9      BCC     $2FA4
2FDB 90 EF      BCC     $2FCC
2FDD 52 33      CLR1    $33.#2
2FDF 01         TCALL   $0
2FE0 18 7F 99   OR      $99,#$7F
2FE3 0C 7C 99   ASL     $997C
2FE6 18 7F 97   OR      $97,#$7F
2FE9 0C 7B 99   ASL     $997B
2FEC C9 0C 4C   MOV     $4C0C,X
2FEF 99         ADC     (X),(Y)
2FF0 C9 99 C9   MOV     $C999,X
2FF3 99         ADC     (X),(Y)
2FF4 E1         TCALL   $E
2FF5 08 E0      OR      A,#$E0
2FF7 10 ED      BPL     $2FE6
2FF9 7D         MOV     A,X
2FFA E3 0F 14   BBS     $0F,#7,$3011
2FFD 14 30      OR      A,$30+X
2FFF 7F         RETI
3000 A5 18 A5   SBC     A,$A518
3003 A7 A5      SBC     A,[$A5+X]
3005 A7 A3      SBC     A,[$A3+X]
3007 A0         EI
3008 A2 0C      SET1    $0C.#5
300A C8 A0      CMP     X,#$A0
300C A2 A3      SET1    $A3.#5
300E A5 A7 30   SBC     A,$30A7
3011 A5 18 A5   SBC     A,$A518
3014 A7 A5      SBC     A,[$A5+X]
3016 A7 A3      SBC     A,[$A3+X]
3018 A5 AC C8   SBC     A,$C8AC
301B AD AF      CMP     Y,#$AF
301D 48 B1      EOR     A,#$B1
301F 30 AD      BMI     $2FCE
3021 18 AF 48   OR      $48,#$AF
3024 AC 0C AA   INC     $AA0C
3027 AC 18 AD   INC     $AD18
302A 0C AC AD   ASL     $ADAC
302D EF         SLEEP
302E 8F 33 02   MOV     $02,#$33
3031 EF         SLEEP
3032 96 33 02   ADC     A,$0233+Y
3035 30 7F      BMI     $30B6
3037 A8 18      SBC     A,#$18
3039 A8 AA      SBC     A,#$AA
303B A8 AA      SBC     A,#$AA
303D A7 A3      SBC     A,[$A3+X]
303F A5 48 C8   SBC     A,$C848
3042 30 A8      BMI     $2FEC
3044 18 A8 AA   OR      $AA,#$A8
3047 A8 AA      SBC     A,#$AA
3049 A7 A8      SBC     A,[$A8+X]
304B AF         MOV     (X)+,A
304C 48 C8      EOR     A,#$C8
304E 30 A8      BMI     $2FF8
3050 18 A8 AA   OR      $AA,#$A8
3053 A8 AA      SBC     A,#$AA
3055 A7 A3      SBC     A,[$A3+X]
3057 A5 48 C8   SBC     A,$C848
305A 30 A8      BMI     $3004
305C 18 A8 AA   OR      $AA,#$A8
305F A8 AA      SBC     A,#$AA
3061 A7 A8      SBC     A,[$A8+X]
3063 AF         MOV     (X)+,A
3064 48 C8      EOR     A,#$C8
3066 EF         SLEEP
3067 9D         MOV     X,SP
3068 33 01 A7   BBC     $01,#1,$3012
306B A7 A7      SBC     A,[$A7+X]
306D A2 A7      SET1    $A7.#5
306F A7 A5      SBC     A,[$A5+X]
3071 A5 A5 A0   SBC     A,$A0A5
3074 A5 A5 EF   SBC     A,$EFA5
3077 B2 33      CLR1    $33.#5
3079 01         TCALL   $0
307A A8 A8      SBC     A,#$A8
307C A8 A3      SBC     A,#$A3
307E A8 A7      SBC     A,#$A7
3080 00         NOP
3081 EF         SLEEP
3082 2A 33 04   OR1     C,/$0433.#0
3085 EF         SLEEP
3086 BF         MOV     A,(X)+
3087 33 01 95   BBC     $01,#1,$301F
308A 95 95 90   ADC     A,$9095+X
308D 95 95 97   ADC     A,$9795+X
3090 97 97      ADC     A,[$97]+Y
3092 92 97      CLR1    $97.#4
3094 97 99      ADC     A,[$99]+Y
3096 99         ADC     (X),(Y)
3097 99         ADC     (X),(Y)
3098 94 99      ADC     A,$99+X
309A 99         ADC     (X),(Y)
309B 99         ADC     (X),(Y)
309C 99         ADC     (X),(Y)
309D 99         ADC     (X),(Y)
309E 94 99      ADC     A,$99+X
30A0 97 EF      ADC     A,[$EF]+Y
30A2 DA 33      MOVW    $33,YA
30A4 01         TCALL   $0
30A5 A5 AC B3   SBC     A,$B3AC
30A8 A7 AC      SBC     A,[$AC+X]
30AA B1         TCALL   $B
30AB A8 AA      SBC     A,#$AA
30AD AC AA AC   INC     $ACAA
30B0 AD AF      CMP     Y,#$AF
30B2 AD AD      CMP     Y,#$AD
30B4 AC AA AC   INC     $ACAA
30B7 A8 AA      SBC     A,#$AA
30B9 AC B1 B3   INC     $B3B1
30BC B4 B3      SBC     A,$B3+X
30BE AF         MOV     (X)+,A
30BF AA AF AA   MOV1    C,$0AAF.#5
30C2 A7 ED      SBC     A,[$ED+X]
30C4 A0         EI
30C5 E0         CLRV
30C6 07 30      OR      A,[$30+X]
30C8 7F         RETI
30C9 B4 18      SBC     A,$18+X
30CB B6 C8 30   SBC     A,$30C8+Y
30CE B8 B8 18   SBC     $18,#$B8
30D1 B3 C8 30   BBC     $C8,#5,$3104
30D4 B1         TCALL   $B
30D5 AF         MOV     (X)+,A
30D6 18 AD C8   OR      $C8,#$AD
30D9 30 AF      BMI     $308A
30DB AC 18 AA   INC     $AA18
30DE C8 30      CMP     X,#$30
30E0 A8 EF      SBC     A,#$EF
30E2 3D         INC     X
30E3 32 01      CLR1    $01.#1
30E5 EF         SLEEP
30E6 64 32      CMP     A,$32
30E8 01         TCALL   $0
30E9 00         NOP
30EA EF         SLEEP
30EB D9 32      MOV     $32+Y,X
30ED 01         TCALL   $0
30EE E2 48      SET1    $48.#7
30F0 14 06      OR      A,$06+X
30F2 7B 9A      ROR     $9A+X
30F4 06         OR      A,(X)
30F5 6B 9A      ROR     $9A
30F7 06         OR      A,(X)
30F8 7D         MOV     A,X
30F9 A2 06      SET1    $06.#5
30FB 6D         PUSH    Y
30FC A2 06      SET1    $06.#5
30FE 7F         RETI
30FF A4 06      SBC     A,$06
3101 6F         RET
3102 A4 24      SBC     A,$24
3104 C9 EF EF   MOV     $EFEF,X
3107 33 02 EF   BBC     $02,#1,$30F9
310A 26         AND     A,(X)
310B 33 01 C9   BBC     $01,#1,$30D7
310E C9 E0 DB   MOV     $DBE0,X
3111 E1         TCALL   $E
3112 44 ED      EOR     A,$ED
3114 A0         EI
3115 EB 0A      MOV     Y,$0A
3117 14 14      OR      A,$14+X
3119 EF         SLEEP
311A C6         MOV     (X),A
311B 32 01      CLR1    $01.#1
311D B5 B3 B1   SBC     A,$B1B3+X
3120 E6         MOV     A,(X)
3121 90 F7      BCC     $311A
3123 0C 5F A5   ASL     $A55F
3126 A5 A5 A0   SBC     A,$A0A5
3129 A5 A5 A3   SBC     A,$A3A5
312C A3 A3 A0   BBS     $A3,#5,$30CF
312F A3 A3 E6   BBS     $A3,#5,$3118
3132 90 FA      BCC     $312E
3134 A5 A5 A5   SBC     A,$A5A5
3137 A0         EI
3138 A5 A5 A5   SBC     A,$A5A5
313B A5 A5 A0   SBC     A,$A0A5
313E A5 A5 E6   SBC     A,$E6A5
3141 90 EB      BCC     $312E
3143 A5 A5 A5   SBC     A,$A5A5
3146 A0         EI
3147 A5 A5 AA   SBC     A,$AAA5
314A AA AA A5   MOV1    C,$05AA.#5
314D AA AA E6   MOV1    C,$06AA.#7
3150 90 FF      BCC     $3151
3152 AA AA AA   MOV1    C,$0AAA.#5
3155 A5 AA AA   SBC     A,$AAAA
3158 AA AA AA   MOV1    C,$0AAA.#5
315B AA A5 A2   MOV1    C,$02A5.#5
315E 00         NOP
315F EF         SLEEP
3160 2A 33 04   OR1     C,/$0433.#0
3163 0C 7F 95   ASL     $957F
3166 95 95 90   ADC     A,$9095+X
3169 95 95 94   ADC     A,$9495+X
316C 94 94      ADC     A,$94+X
316E 90 94      BCC     $3104
3170 94 EF      ADC     A,$EF+X
3172 04 34      OR      A,$34
3174 02 95      SET1    $95.#0
3176 95 95 90   ADC     A,$9095+X
3179 95 95 9A   ADC     A,$9A95+X
317C 9A 9A      SUBW    YA,$9A
317E 95 9A 9A   ADC     A,$9A9A+X
3181 9B 9B      DEC     $9B+X
3183 9B 96      DEC     $96+X
3185 8F 8F 9B   MOV     $9B,#$8F
3188 9B 9B      DEC     $9B+X
318A 9B 96      DEC     $96+X
318C 92 ED      CLR1    $ED.#4
318E 82 E0      SET1    $E0.#4
3190 07 0C      OR      A,[$0C+X]
3192 5F A8 AA   JMP     $AAA8
3195 AC AA AC   INC     $ACAA
3198 AD AF      CMP     Y,#$AF
319A AD AC      CMP     Y,#$AC
319C AD AC      CMP     Y,#$AC
319E AA AC AA   MOV1    C,$0AAC.#5
31A1 A8 AA      SBC     A,#$AA
31A3 A8 A7      SBC     A,#$A7
31A5 A8 A7      SBC     A,#$A7
31A7 A5 A7 A8   SBC     A,$A8A7
31AA AA EF 0B   MOV1    C,$0BEF.#0
31AD 34 02      AND     A,$02+X
31AF EF         SLEEP
31B0 12 34      CLR1    $34.#0
31B2 02 24      SET1    $24.#0
31B4 7F         RETI
31B5 A5 A7 A8   SBC     A,$A8A7
31B8 AC B1 B3   INC     $B3B1
31BB B4 B6      SBC     A,$B6+X
31BD 48 B8      EOR     A,#$B8
31BF B4 B6      SBC     A,$B6+X
31C1 C8 E5      CMP     X,#$E5
31C3 F5 E0 03   MOV     A,$03E0+X
31C6 ED         NOTC
31C7 A5 EF 9D   SBC     A,$9DEF
31CA 33 01 A7   BBC     $01,#1,$3174
31CD A7 A7      SBC     A,[$A7+X]
31CF A2 A7      SET1    $A7.#5
31D1 A7 00      SBC     A,[$00+X]
31D3 E1         TCALL   $E
31D4 0F         BRK
31D5 0C 7F A4   ASL     $A47F
31D8 0C 7D A2   ASL     $A27D
31DB 9A 0C      SUBW    YA,$0C
31DD 7F         RETI
31DE A4 0C      SBC     A,$0C
31E0 7D         MOV     A,X
31E1 A2 9A      SET1    $9A.#5
31E3 E2 48      SET1    $48.#7
31E5 14 06      OR      A,$06+X
31E7 7F         RETI
31E8 9A 06      SUBW    YA,$06
31EA 6F         RET
31EB 9A 06      SUBW    YA,$06
31ED 7F         RETI
31EE A2 06      SET1    $06.#5
31F0 6F         RET
31F1 A2 06      SET1    $06.#5
31F3 7F         RETI
31F4 A4 06      SBC     A,$06
31F6 6F         RET
31F7 A4 24      SBC     A,$24
31F9 C9 E1 0F   MOV     $0FE1,X
31FC 0C 7F A4   ASL     $A47F
31FF 0C 7D A2   ASL     $A27D
3202 9A 0C      SUBW    YA,$0C
3204 7F         RETI
3205 A4 0C      SBC     A,$0C
3207 7D         MOV     A,X
3208 A2 9A      SET1    $9A.#5
320A E2 48      SET1    $48.#7
320C 14 06      OR      A,$06+X
320E 7F         RETI
320F 9A 06      SUBW    YA,$06
3211 6F         RET
3212 9A 06      SUBW    YA,$06
3214 7F         RETI
3215 A2 06      SET1    $06.#5
3217 6F         RET
3218 A2 06      SET1    $06.#5
321A 7F         RETI
321B A4 06      SBC     A,$06
321D 6F         RET
321E A4 24      SBC     A,$24
3220 C9 ED EB   MOV     $EBED,X
3223 EF         SLEEP
3224 BF         MOV     A,(X)+
3225 33 01 E1   BBC     $01,#1,$3209
3228 44 ED      EOR     A,$ED
322A 8E         POP     PSW
322B E0         CLRV
322C 07 EF      OR      A,[$EF+X]
322E DA 33      MOVW    $33,YA
3230 01         TCALL   $0
3231 A5 AC B1   SBC     A,$B1AC
3234 A7 AC      SBC     A,[$AC+X]
3236 B1         TCALL   $B
3237 EF         SLEEP
3238 26         AND     A,(X)
3239 33 01 C9   BBC     $01,#1,$3205
323C C9 E1 42   MOV     $42E1,X
323F 0C 7F CD   ASL     $CD7F
3242 E1         TCALL   $E
3243 13 CB E1   BBC     $CB,#0,$3227
3246 42 CD      SET1    $CD.#2
3248 E1         TCALL   $E
3249 13 CB E1   BBC     $CB,#0,$322D
324C 42 CD      SET1    $CD.#2
324E E1         TCALL   $E
324F 13 CB E1   BBC     $CB,#0,$3233
3252 42 0C      SET1    $0C.#2
3254 7B CD      ROR     $CD+X
3256 E1         TCALL   $E
3257 13 0C 7F   BBC     $0C,#0,$32D9
325A CB E1      MOV     $E1,Y
325C 42 CD      SET1    $CD.#2
325E E1         TCALL   $E
325F 13 CB C9   BBC     $CB,#0,$322B
3262 CB 00      MOV     $00,Y
3264 E1         TCALL   $E
3265 42 CD      SET1    $CD.#2
3267 E1         TCALL   $E
3268 13 CB E1   BBC     $CB,#0,$324C
326B 42 CD      SET1    $CD.#2
326D E1         TCALL   $E
326E 13 CB E1   BBC     $CB,#0,$3252
3271 42 CD      SET1    $CD.#2
3273 E1         TCALL   $E
3274 13 CB E1   BBC     $CB,#0,$3258
3277 42 0C      SET1    $0C.#2
3279 7B CD      ROR     $CD+X
327B E1         TCALL   $E
327C 13 0C 7F   BBC     $0C,#0,$32FE
327F CB E1      MOV     $E1,Y
3281 42 CD      SET1    $CD.#2
3283 E1         TCALL   $E
3284 13 CB C9   BBC     $CB,#0,$3250
3287 CB 00      MOV     $00,Y
3289 E2 48      SET1    $48.#7
328B 14 06      OR      A,$06+X
328D 7B 9A      ROR     $9A+X
328F 06         OR      A,(X)
3290 6B 9A      ROR     $9A
3292 06         OR      A,(X)
3293 7D         MOV     A,X
3294 A2 06      SET1    $06.#5
3296 6D         PUSH    Y
3297 A2 06      SET1    $06.#5
3299 7F         RETI
329A A4 06      SBC     A,$06
329C 6F         RET
329D A4 24      SBC     A,$24
329F C9 E1 0D   MOV     $0DE1,X
32A2 0C 7F A4   ASL     $A47F
32A5 0C 7D A2   ASL     $A27D
32A8 9A 0C      SUBW    YA,$0C
32AA 7F         RETI
32AB A4 0C      SBC     A,$0C
32AD 7D         MOV     A,X
32AE A2 9A      SET1    $9A.#5
32B0 00         NOP
32B1 18 7F 94   OR      $94,#$7F
32B4 0C 7C 94   ASL     $947C
32B7 18 7F 92   OR      $92,#$7F
32BA 0C 7B 94   ASL     $947B
32BD C9 0C 4C   MOV     $4C0C,X
32C0 99         ADC     (X),(Y)
32C1 C9 97 C9   MOV     $C997,X
32C4 96 00 18   ADC     A,$1800+Y
32C7 7F         RETI
32C8 AF         MOV     (X)+,A
32C9 B1         TCALL   $B
32CA B3 B1 AF   BBC     $B1,#5,$327C
32CD B1         TCALL   $B
32CE AF         MOV     (X)+,A
32CF B1         TCALL   $B
32D0 B3 00 B1   BBC     $00,#5,$3284
32D3 AF         MOV     (X)+,A
32D4 B1         TCALL   $B
32D5 AF         MOV     (X)+,A
32D6 B1         TCALL   $B
32D7 B3 00 E1   BBC     $00,#5,$32BB
32DA 0D         PUSH    PSW
32DB 0C 7F A4   ASL     $A47F
32DE 0C 7D A2   ASL     $A27D
32E1 9A 0C      SUBW    YA,$0C
32E3 7F         RETI
32E4 A4 0C      SBC     A,$0C
32E6 7D         MOV     A,X
32E7 A2 9A      SET1    $9A.#5
32E9 E2 48      SET1    $48.#7
32EB 14 06      OR      A,$06+X
32ED 7B 9A      ROR     $9A+X
32EF 06         OR      A,(X)
32F0 6B 9A      ROR     $9A
32F2 06         OR      A,(X)
32F3 7D         MOV     A,X
32F4 A2 06      SET1    $06.#5
32F6 6D         PUSH    Y
32F7 A2 06      SET1    $06.#5
32F9 7F         RETI
32FA A4 06      SBC     A,$06
32FC 6F         RET
32FD A4 24      SBC     A,$24
32FF C9 E1 0D   MOV     $0DE1,X
3302 0C 7F A4   ASL     $A47F
3305 0C 7D A2   ASL     $A27D
3308 9A 0C      SUBW    YA,$0C
330A 7F         RETI
330B A4 0C      SBC     A,$0C
330D 7D         MOV     A,X
330E A2 9A      SET1    $9A.#5
3310 00         NOP
3311 18 7F 94   OR      $94,#$7F
3314 0C 7C 94   ASL     $947C
3317 18 7F 92   OR      $92,#$7F
331A 0C 7B 94   ASL     $947B
331D C9 0C 4C   MOV     $4C0C,X
3320 99         ADC     (X),(Y)
3321 C9 97 C9   MOV     $C997,X
3324 96 00 48   ADC     A,$4800+Y
3327 C9 C9 00   MOV     $00C9,X
332A E1         TCALL   $E
332B 0D         PUSH    PSW
332C 0C 7F A4   ASL     $A47F
332F 0C 7D A2   ASL     $A27D
3332 9A 0C      SUBW    YA,$0C
3334 7F         RETI
3335 A4 0C      SBC     A,$0C
3337 7D         MOV     A,X
3338 A2 9A      SET1    $9A.#5
333A E2 48      SET1    $48.#7
333C 14 06      OR      A,$06+X
333E 7F         RETI
333F 9A 06      SUBW    YA,$06
3341 6F         RET
3342 9A 06      SUBW    YA,$06
3344 7F         RETI
3345 A2 06      SET1    $06.#5
3347 6F         RET
3348 A2 06      SET1    $06.#5
334A 7F         RETI
334B A4 06      SBC     A,$06
334D 6F         RET
334E A4 24      SBC     A,$24
3350 C9 00 18   MOV     $1800,X
3353 7F         RETI
3354 92 0C      CLR1    $0C.#4
3356 7C         ROR     A
3357 92 18      CLR1    $18.#4
3359 7F         RETI
335A 90 0C      BCC     $3368
335C 7B 92      ROR     $92+X
335E C9 0C 4C   MOV     $4C0C,X
3361 92 C9      CLR1    $C9.#4
3363 92 C9      CLR1    $C9.#4
3365 92 18      CLR1    $18.#4
3367 7F         RETI
3368 94 0C      ADC     A,$0C+X
336A 7C         ROR     A
336B 94 18      ADC     A,$18+X
336D 7F         RETI
336E 92 0C      CLR1    $0C.#4
3370 7B 94      ROR     $94+X
3372 C9 0C 4C   MOV     $4C0C,X
3375 94 C9      ADC     A,$C9+X
3377 94 C9      ADC     A,$C9+X
3379 94 18      ADC     A,$18+X
337B 7F         RETI
337C 95 0C 7C   ADC     A,$7C0C+X
337F 95 18 7F   ADC     A,$7F18+X
3382 94 0C      ADC     A,$0C+X
3384 7B 95      ROR     $95+X
3386 C9 0C 4C   MOV     $4C0C,X
3389 95 C9 95   ADC     A,$95C9+X
338C C9 95 00   MOV     $0095,X
338F AF         MOV     (X)+,A
3390 AD AB      CMP     Y,#$AB
3392 AF         MOV     (X)+,A
3393 AD AB      CMP     Y,#$AB
3395 00         NOP
3396 AF         MOV     (X)+,A
3397 AE         POP     A
3398 AC AF AE   INC     $AEAF
339B AC 00 0C   INC     $0C00
339E 5F A5 A5   JMP     $A5A5
33A1 A5 A0 A5   SBC     A,$A5A0
33A4 A5 A6 A6   SBC     A,$A6A6
33A7 A6         SBC     A,(X)
33A8 A1         TCALL   $A
33A9 A6         SBC     A,(X)
33AA A6         SBC     A,(X)
33AB A8 A8      SBC     A,#$A8
33AD A8 A3      SBC     A,#$A3
33AF A8 A8      SBC     A,#$A8
33B1 00         NOP
33B2 A6         SBC     A,(X)
33B3 A6         SBC     A,(X)
33B4 A6         SBC     A,(X)
33B5 A1         TCALL   $A
33B6 A6         SBC     A,(X)
33B7 A6         SBC     A,(X)
33B8 A8 A8      SBC     A,#$A8
33BA A8 A3      SBC     A,#$A3
33BC A8 A8      SBC     A,#$A8
33BE 00         NOP
33BF 0C 7F 95   ASL     $957F
33C2 95 95 90   ADC     A,$9095+X
33C5 95 95 97   ADC     A,$9795+X
33C8 97 97      ADC     A,[$97]+Y
33CA 92 97      CLR1    $97.#4
33CC 97 99      ADC     A,[$99]+Y
33CE 99         ADC     (X),(Y)
33CF 99         ADC     (X),(Y)
33D0 94 99      ADC     A,$99+X
33D2 99         ADC     (X),(Y)
33D3 97 97      ADC     A,[$97]+Y
33D5 97 92      ADC     A,[$92]+Y
33D7 97 97      ADC     A,[$97]+Y
33D9 00         NOP
33DA 0C 5F A8   ASL     $A85F
33DD AA AC AA   MOV1    C,$0AAC.#5
33E0 AC AD AF   INC     $AFAD
33E3 AD AD      CMP     Y,#$AD
33E5 AC AA AC   INC     $ACAA
33E8 AC AA AA   INC     $AAAA
33EB A8 A7      SBC     A,#$A7
33ED A8 00      SBC     A,#$00
33EF 18 7F 94   OR      $94,#$7F
33F2 0C 7C 94   ASL     $947C
33F5 18 7F 92   OR      $92,#$7F
33F8 0C 7B 94   ASL     $947B
33FB C9 0C 7C   MOV     $7C0C,X
33FE 99         ADC     (X),(Y)
33FF C9 97 C9   MOV     $C997,X
3402 96 00 96   ADC     A,$9600+Y
3405 96 96 90   ADC     A,$9096+Y
3408 96 96 00   ADC     A,$0096+Y
340B AC AA A8   INC     $A8AA
340E AF         MOV     (X)+,A
340F AC AA 00   INC     $00AA
3412 A5 AA AC   SBC     A,$ACAA
3415 AA AC B1   MOV1    C,$11AC.#5
3418 00         NOP
3419 45 34 25   EOR     A,$2534
341C 34 35      AND     A,$35+X
341E 34 FF      AND     A,$FF+X
3420 00         NOP
3421 1B 34      ASL     $34+X
3423 00         NOP
3424 00         NOP
3425 55 34 A2   EOR     A,$A234+X
3428 34 DE      AND     A,$DE+X
342A 34 E4      AND     A,$E4+X
342C 34 FB      AND     A,$FB+X
342E 34 00      AND     A,$00+X
3430 00         NOP
3431 00         NOP
3432 00         NOP
3433 00         NOP
3434 00         NOP
3435 47 35      EOR     A,[$35+X]
3437 90 35      BCC     $346E
3439 E9 35 0C   MOV     X,$0C35
343C 36 5A 36   AND     A,$365A+Y
343F 00         NOP
3440 00         NOP
3441 00         NOP
3442 00         NOP
3443 00         NOP
3444 00         NOP
3445 A1         TCALL   $A
3446 36 BC 36   AND     A,$36BC+Y
3449 C7 36      MOV     [$36+X],A
344B CF         MUL     YA
344C 36 DC 36   AND     A,$36DC+Y
344F 00         NOP
3450 00         NOP
3451 00         NOP
3452 00         NOP
3453 00         NOP
3454 00         NOP
3455 ED         NOTC
3456 A0         EI
3457 E5 F0 E1   MOV     A,$E1F0
345A 09 E0 07   OR      $07,$E0
345D EF         SLEEP
345E E8 36      MOV     A,#$36
3460 01         TCALL   $0
3461 EF         SLEEP
3462 FC         INC     Y
3463 36 01 12   AND     A,$1201+Y
3466 A2 06      SET1    $06.#5
3468 A9 0C C9   SBC     $C9,$0C
346B 3C         ROL     A
346C B0 12      BCS     $3480
346E A2 06      SET1    $06.#5
3470 A9 0C C9   SBC     $C9,$0C
3473 24 B0      AND     A,$B0
3475 18 B2 12   OR      $12,#$B2
3478 A0         EI
3479 06         OR      A,(X)
347A A7 0C      SBC     A,[$0C+X]
347C C9 3C AE   MOV     $AE3C,X
347F 12 A0      CLR1    $A0.#0
3481 06         OR      A,(X)
3482 A7 0C      SBC     A,[$0C+X]
3484 C9 24 AE   MOV     $AE24,X
3487 18 B0 12   OR      $12,#$B0
348A A9 06 B0   SBC     $B0,$06
348D 0C C9 3C   ASL     $3CC9
3490 B7 12      SBC     A,[$12]+Y
3492 A7 06      SBC     A,[$06+X]
3494 AE         POP     A
3495 0C C9 3C   ASL     $3CC9
3498 B5 12 A6   SBC     A,$A612+X
349B 06         OR      A,(X)
349C AD 0C      CMP     Y,#$0C
349E C9 3C B4   MOV     $B43C,X
34A1 00         NOP
34A2 EA F4 E1   NOT1    $01F4.#7
34A5 08 3C      OR      A,#$3C
34A7 7F         RETI
34A8 9A 24      SUBW    YA,$24
34AA A6         SBC     A,(X)
34AB 3C         ROL     A
34AC 9A 18      SUBW    YA,$18
34AE A6         SBC     A,(X)
34AF 0C 9A 3C   ASL     $3C9A
34B2 98 24 A4   ADC     $A4,#$24
34B5 3C         ROL     A
34B6 98 18 A4   ADC     $A4,#$18
34B9 0C 98 3C   ASL     $3C98
34BC 96 24 A2   ADC     A,$A224+Y
34BF 3C         ROL     A
34C0 96 18 A2   ADC     A,$A218+Y
34C3 0C 96 3C   ASL     $3C96
34C6 94 24      ADC     A,$24+X
34C8 A0         EI
34C9 3C         ROL     A
34CA 94 18      ADC     A,$18+X
34CC A0         EI
34CD 0C 94 24   ASL     $2494
34D0 91         TCALL   $9
34D1 9D         MOV     X,SP
34D2 18 98 24   OR      $24,#$98
34D5 8F 9B 18   MOV     $18,#$9B
34D8 96 24 8E   ADC     A,$8E24+Y
34DB 9A 18      SUBW    YA,$18
34DD 95 E1 0B   ADC     A,$0BE1+X
34E0 EF         SLEEP
34E1 0F         BRK
34E2 37 0B      AND     A,[$0B]+Y
34E4 ED         NOTC
34E5 67 E3      CMP     A,[$E3+X]
34E7 30 2D      BMI     $3516
34E9 23 E1 02   BBS     $E1,#1,$34EE
34EC E0         CLRV
34ED 02 60      SET1    $60.#0
34EF 7F         RETI
34F0 B7 B6      SBC     A,[$B6]+Y
34F2 B0 C8      BCS     $34BC
34F4 B2 B5      CLR1    $B5.#5
34F6 B7 B3      SBC     A,[$B3]+Y
34F8 B0 B7      BCS     $34B1
34FA B9         SBC     (X),(Y)
34FB EA F4 ED   NOT1    $0DF4.#7
34FE 96 E1 12   ADC     A,$12E1+Y
3501 E0         CLRV
3502 0F         BRK
3503 EF         SLEEP
3504 30 37      BMI     $353D
3506 01         TCALL   $0
3507 EF         SLEEP
3508 FC         INC     Y
3509 36 01 12   AND     A,$1201+Y
350C A2 06      SET1    $06.#5
350E A9 0C C9   SBC     $C9,$0C
3511 3C         ROL     A
3512 B0 12      BCS     $3526
3514 A2 06      SET1    $06.#5
3516 A9 0C C9   SBC     $C9,$0C
3519 24 B0      AND     A,$B0
351B 18 B2 12   OR      $12,#$B2
351E A0         EI
351F 06         OR      A,(X)
3520 A7 0C      SBC     A,[$0C+X]
3522 C9 3C AE   MOV     $AE3C,X
3525 12 A0      CLR1    $A0.#0
3527 06         OR      A,(X)
3528 A7 0C      SBC     A,[$0C+X]
352A C9 24 AE   MOV     $AE24,X
352D 18 B0 12   OR      $12,#$B0
3530 A9 06 B0   SBC     $B0,$06
3533 0C C9 3C   ASL     $3CC9
3536 B7 12      SBC     A,[$12]+Y
3538 A7 06      SBC     A,[$06+X]
353A AE         POP     A
353B 0C C9 3C   ASL     $3CC9
353E B5 12 A6   SBC     A,$A612+X
3541 06         OR      A,(X)
3542 AD 0C      CMP     Y,#$0C
3544 C9 3A B4   MOV     $B43A,X
3547 ED         NOTC
3548 E1         TCALL   $E
3549 E0         CLRV
354A D0 06      BNE     $3552
354C C9 06 6D   MOV     $6D06,X
354F BE         DAS     A
3550 0E 6F BC   TSET1   $BC6F
3553 0C 5F BE   ASL     $BE5F
3556 C1         TCALL   $C
3557 0C 4F BE   ASL     $BE4F
355A C9 12 5F   MOV     $5F12,X
355D BE         DAS     A
355E 06         OR      A,(X)
355F 6D         PUSH    Y
3560 BE         DAS     A
3561 ED         NOTC
3562 CD 60      MOV     X,#$60
3564 7F         RETI
3565 B5 48 B4   SBC     A,$B448+X
3568 18 B0 60   OR      $60,#$B0
356B B5 48 B4   SBC     A,$B448+X
356E 18 B7 60   OR      $60,#$B7
3571 B5 48 B3   SBC     A,$B348+X
3574 18 B3 EF   OR      $EF,#$B3
3577 44 37      EOR     A,$37
3579 02 EF      SET1    $EF.#0
357B 4B 37      LSR     $37
357D 02 60      SET1    $60.#0
357F B7 ED      SBC     A,[$ED]+Y
3581 E1         TCALL   $E
3582 0C C9 0C   ASL     $0CC9
3585 7D         MOV     A,X
3586 B7 B9      SBC     A,[$B9]+Y
3588 B7 12      SBC     A,[$12]+Y
358A 7F         RETI
358B BC         INC     A
358C BE         DAS     A
358D 0C C1 00   ASL     $00C1
3590 06         OR      A,(X)
3591 C9 06 6D   MOV     $6D06,X
3594 A6         SBC     A,(X)
3595 0E 6F A4   TSET1   $A46F
3598 0C 5F A6   ASL     $A65F
359B A9 0C 4F   SBC     $4F,$0C
359E A6         SBC     A,(X)
359F C9 12 5F   MOV     $5F12,X
35A2 A6         SBC     A,(X)
35A3 06         OR      A,(X)
35A4 6D         PUSH    Y
35A5 A6         SBC     A,(X)
35A6 E0         CLRV
35A7 08 ED      OR      A,#$ED
35A9 FF         STOP
35AA EA F4 18   NOT1    $18F4.#0
35AD 7F         RETI
35AE 9F         XCN     A
35AF 0C C9 06   ASL     $06C9
35B2 9D         MOV     X,SP
35B3 9F         XCN     A
35B4 0C 95 96   ASL     $9695
35B7 97 98      ADC     A,[$98]+Y
35B9 EF         SLEEP
35BA 52 37      CLR1    $37.#2
35BC 02 18      SET1    $18.#0
35BE 99         ADC     (X),(Y)
35BF 0C C9 06   ASL     $06C9
35C2 98 99 0C   ADC     $0C,#$99
35C5 96 97 98   ADC     A,$9897+Y
35C8 99         ADC     (X),(Y)
35C9 EF         SLEEP
35CA 6D         PUSH    Y
35CB 37 02      AND     A,[$02]+Y
35CD EF         SLEEP
35CE 7A 37      ADDW    YA,$37
35D0 02 18      SET1    $18.#0
35D2 9C         DEC     A
35D3 0C C9 06   ASL     $06C9
35D6 9A 9C      SUBW    YA,$9C
35D8 0C 97 97   ASL     $9797
35DB 9C         DEC     A
35DC A3 C9 0C   BBS     $C9,#5,$35EB
35DF 7D         MOV     A,X
35E0 9F         XCN     A
35E1 A1         TCALL   $A
35E2 9F         XCN     A
35E3 12 7F      CLR1    $7F.#0
35E5 A4 A6      SBC     A,$A6
35E7 0A A9 06   OR1     C,$06A9.#0
35EA C9 06 7F   MOV     $7F06,X
35ED CA 0E CA   MOV1    $0A0E.#6,C
35F0 0C CA CA   ASL     $CACA
35F3 CA C9 12   MOV1    $12C9.#0,C
35F6 CA 06 CA   MOV1    $0A06.#6,C
35F9 18 CA CD   OR      $CD,#$CA
35FC CA CD EF   MOV1    $0FCD.#7,C
35FF 87 37      ADC     A,[$37+X]
3601 05 0C C9   OR      A,$C90C
3604 CA CA CA   MOV1    $0ACA.#6,C
3607 12 CA      CLR1    $CA.#0
3609 CA 0C CA   MOV1    $0A0C.#6,C
360C E4 ED      MOV     A,$ED
360E E1         TCALL   $E
360F E0         CLRV
3610 D0 06      BNE     $3618
3612 C9 06 6D   MOV     $6D06,X
3615 B2 0E      CLR1    $0E.#5
3617 6F         RET
3618 B0 0C      BCS     $3626
361A 5F B2 B5   JMP     $B5B2
361D 0C 4F B2   ASL     $B24F
3620 C9 12 5F   MOV     $5F12,X
3623 B2 06      CLR1    $06.#5
3625 6D         PUSH    Y
3626 B2 E0      CLR1    $E0.#5
3628 03 ED AA   BBS     $ED,#0,$35D5
362B 48 7F      EOR     A,#$7F
362D AE         POP     A
362E 0C AD AB   ASL     $ABAD
3631 EF         SLEEP
3632 93 37 02   BBC     $37,#4,$3637
3635 60         CLRC
3636 AE         POP     A
3637 48 B1      EOR     A,#$B1
3639 18 B1 48   OR      $48,#$B1
363C B1         TCALL   $B
363D 18 B1 48   OR      $48,#$B1
3640 B0 18      BCS     $365A
3642 B0 48      BCS     $368C
3644 B0 18      BCS     $365E
3646 B0 B2      BCS     $35FA
3648 0C B0 3C   ASL     $3CB0
364B AF         MOV     (X)+,A
364C E0         CLRV
364D D0 ED      BNE     $363C
364F E1         TCALL   $E
3650 0C C9 AB   ASL     $ABC9
3653 AD AB      CMP     Y,#$AB
3655 12 B0      CLR1    $B0.#0
3657 B2 0C      CLR1    $0C.#5
3659 B5 EA 00   SBC     A,$00EA+X
365C E1         TCALL   $E
365D 0A ED D2   OR1     C,$12ED.#6
3660 E0         CLRV
3661 D0 06      BNE     $3669
3663 C9 06 6F   MOV     $6F06,X
3666 A6         SBC     A,(X)
3667 0E A4 0C   TSET1   $0CA4
366A 5F A6 A9   JMP     $A9A6
366D A6         SBC     A,(X)
366E C9 12 A6   MOV     $A612,X
3671 06         OR      A,(X)
3672 6F         RET
3673 A6         SBC     A,(X)
3674 ED         NOTC
3675 B4 62      SBC     A,$62+X
3677 7F         RETI
3678 B5 48 B4   SBC     A,$B448+X
367B 18 B0 60   OR      $60,#$B0
367E B5 48 B4   SBC     A,$B448+X
3681 18 B7 60   OR      $60,#$B7
3684 B5 48 B3   SBC     A,$B348+X
3687 18 B3 EF   OR      $EF,#$B3
368A 44 37      EOR     A,$37
368C 02 EF      SET1    $EF.#0
368E 4B 37      LSR     $37
3690 02 60      SET1    $60.#0
3692 B7 ED      SBC     A,[$ED]+Y
3694 D2 E0      CLR1    $E0.#6
3696 D0 0C      BNE     $36A4
3698 C9 AB AD   MOV     $ADAB,X
369B AB 12      INC     $12
369D B0 B2      BCS     $3651
369F 0A B5 FA   OR1     C,$1AB5.#7
36A2 11         TCALL   $1
36A3 E9 01 E5   MOV     X,$E501
36A6 F0 E7      BEQ     $368F
36A8 20         CLRP
36A9 F5 3F 14   MOV     A,$143F+X
36AC 14 F7      OR      A,$F7+X
36AE 05 28 00   OR      A,$0028
36B1 E0         CLRV
36B2 07 ED      OR      A,[$ED+X]
36B4 A0         EI
36B5 E1         TCALL   $E
36B6 09 EF E8   OR      $E8,$EF
36B9 36 01 00   AND     A,$0001+Y
36BC ED         NOTC
36BD FF         STOP
36BE E0         CLRV
36BF 08 EA      OR      A,#$EA
36C1 F4 E1      MOV     A,$E1+X
36C3 08 60      OR      A,#$60
36C5 C9 C9 E1   MOV     $E1C9,X
36C8 0B ED      ASL     $ED
36CA FF         STOP
36CB EF         SLEEP
36CC 9B 37      DEC     $37+X
36CE 02 E0      SET1    $E0.#0
36D0 02 ED      SET1    $ED.#0
36D2 96 E3 30   ADC     A,$30E3+Y
36D5 1E 23 E1   CMP     X,$E123
36D8 45 60 C9   EOR     A,$C960
36DB C9 EA F4   MOV     $F4EA,X
36DE E0         CLRV
36DF 0F         BRK
36E0 ED         NOTC
36E1 96 E1 12   ADC     A,$12E1+Y
36E4 EF         SLEEP
36E5 30 37      BMI     $371E
36E7 01         TCALL   $0
36E8 12 7F      CLR1    $7F.#0
36EA A6         SBC     A,(X)
36EB 06         OR      A,(X)
36EC AD 0C      CMP     Y,#$0C
36EE C9 3C B4   MOV     $B43C,X
36F1 12 A6      CLR1    $A6.#0
36F3 06         OR      A,(X)
36F4 AD 0C      CMP     Y,#$0C
36F6 C9 24 B4   MOV     $B424,X
36F9 18 B6 00   OR      $00,#$B6
36FC 12 A4      CLR1    $A4.#0
36FE 06         OR      A,(X)
36FF AB 0C      INC     $0C
3701 C9 3C B2   MOV     $B23C,X
3704 12 A4      CLR1    $A4.#0
3706 06         OR      A,(X)
3707 AB 0C      INC     $0C
3709 C9 24 B2   MOV     $B224,X
370C 18 B4 00   OR      $00,#$B4
370F 06         OR      A,(X)
3710 7F         RETI
3711 CE         POP     X
3712 06         OR      A,(X)
3713 7B CE      ROR     $CE+X
3715 CE         POP     X
3716 CE         POP     X
3717 06         OR      A,(X)
3718 7F         RETI
3719 CA 06 7B   MOV1    $1B06.#3,C
371C CE         POP     X
371D CE         POP     X
371E 06         OR      A,(X)
371F 7F         RETI
3720 CE         POP     X
3721 CE         POP     X
3722 06         OR      A,(X)
3723 7B CE      ROR     $CE+X
3725 CE         POP     X
3726 CE         POP     X
3727 06         OR      A,(X)
3728 7F         RETI
3729 CA 06 7B   MOV1    $1B06.#3,C
372C CE         POP     X
372D CE         POP     X
372E CE         POP     X
372F 00         NOP
3730 14 7F      OR      A,$7F+X
3732 A6         SBC     A,(X)
3733 06         OR      A,(X)
3734 AD 0C      CMP     Y,#$0C
3736 C9 3C B4   MOV     $B43C,X
3739 12 A6      CLR1    $A6.#0
373B 06         OR      A,(X)
373C AD 0C      CMP     Y,#$0C
373E C9 24 B4   MOV     $B424,X
3741 18 B6 00   OR      $00,#$B6
3744 3C         ROL     A
3745 B6 0C B6   SBC     A,$B60C+Y
3748 B8 B9 00   SBC     $00,#$B9
374B 3C         ROL     A
374C B5 0C B5   SBC     A,$B50C+X
374F B7 B9      SBC     A,[$B9]+Y
3751 00         NOP
3752 C9 18 A4   MOV     $A418,X
3755 0C 9F 06   ASL     $069F
3758 9A 9B      SUBW    YA,$9B
375A C9 9C C9   MOV     $C99C,X
375D 9D         MOV     X,SP
375E C9 9E 18   MOV     $189E,X
3761 9F         XCN     A
3762 0C C9 06   ASL     $06C9
3765 9D         MOV     X,SP
3766 9F         XCN     A
3767 0C 95 96   ASL     $9695
376A 97 98      ADC     A,[$98]+Y
376C 00         NOP
376D 18 9A 0C   OR      $0C,#$9A
3770 C9 06 99   MOV     $9906,X
3773 9A 0C      SUBW    YA,$0C
3775 95 95 9A   ADC     A,$9A95+X
3778 95 00 18   ADC     A,$1800+X
377B 9A 0C      SUBW    YA,$0C
377D C9 06 98   MOV     $9806,X
3780 9A 0C      SUBW    YA,$0C
3782 95 95 9A   ADC     A,$9A95+X
3785 95 00 CA   ADC     A,$CA00+X
3788 CD 0C      MOV     X,#$0C
378A C9 CA 18   MOV     $18CA,X
378D CD CA      MOV     X,#$CA
378F CD CA      MOV     X,#$CA
3791 CD 00      MOV     X,#$00
3793 60         CLRC
3794 C8 48      CMP     X,#$48
3796 AE         POP     A
3797 0C AD AB   ASL     $ABAD
379A 00         NOP
379B 06         OR      A,(X)
379C 7F         RETI
379D CE         POP     X
379E 06         OR      A,(X)
379F 79         CMP     (X),(Y)
37A0 CE         POP     X
37A1 CE         POP     X
37A2 CE         POP     X
37A3 06         OR      A,(X)
37A4 7F         RETI
37A5 CA 06 79   MOV1    $1906.#3,C
37A8 CE         POP     X
37A9 CE         POP     X
37AA 06         OR      A,(X)
37AB 7F         RETI
37AC CE         POP     X
37AD CE         POP     X
37AE 06         OR      A,(X)
37AF 79         CMP     (X),(Y)
37B0 CE         POP     X
37B1 CE         POP     X
37B2 CE         POP     X
37B3 06         OR      A,(X)
37B4 7F         RETI
37B5 CA 06 79   MOV1    $1906.#3,C
37B8 CE         POP     X
37B9 CE         POP     X
37BA CE         POP     X
37BB 00         NOP
37BC C6         MOV     (X),A
37BD 37 D6      AND     A,[$D6]+Y
37BF 37 FF      AND     A,[$FF]+Y
37C1 00         NOP
37C2 BC         INC     A
37C3 37 00      AND     A,[$00]+Y
37C5 00         NOP
37C6 E6         MOV     A,(X)
37C7 37 7A      AND     A,[$7A]+Y
37C9 38 8D 38   AND     $38,#$8D
37CC E2 38      SET1    $38.#7
37CE 39         AND     (X),(Y)
37CF 39         AND     (X),(Y)
37D0 90 39      BCC     $380B
37D2 00         NOP
37D3 00         NOP
37D4 00         NOP
37D5 00         NOP
37D6 E7 39      MOV     A,[$39+X]
37D8 7E 3A      CMP     Y,$3A
37DA 97 3A      ADC     A,[$3A]+Y
37DC E1         TCALL   $E
37DD 3A 2C      INCW    $2C
37DF 3B 6E      ROL     $6E+X
37E1 3B 00      ROL     $00+X
37E3 00         NOP
37E4 AF         MOV     (X)+,A
37E5 3B FA      ROL     $FA+X
37E7 11         TCALL   $1
37E8 F5 7F 21   MOV     A,$217F+X
37EB 21         TCALL   $2
37EC F7 05      MOV     A,[$05]+Y
37EE 1E 00 E1   CMP     X,$E100
37F1 08 E5      OR      A,#$E5
37F3 FF         STOP
37F4 E7 1C      MOV     A,[$1C+X]
37F6 ED         NOTC
37F7 FF         STOP
37F8 E0         CLRV
37F9 D1         TCALL   $D
37FA 0C 7F 89   ASL     $897F
37FD 06         OR      A,(X)
37FE 89 95 89   ADC     $89,$95
3801 95 0C 8B   ADC     A,$8B0C+X
3804 8C 18 C9   DEC     $C918
3807 0C 8C 0C   ASL     $0C8C
380A 2F 8E      BRA     $379A
380C 18 C9 06   OR      $06,#$C9
380F 7F         RETI
3810 8C 8E 91   DEC     $918E
3813 0C 85 06   ASL     $0685
3816 85 0C 2F   ADC     A,$2F0C
3819 87 0C      ADC     A,[$0C+X]
381B 7F         RETI
381C 87 89      ADC     A,[$89+X]
381E 06         OR      A,(X)
381F 89 95 89   ADC     $89,$95
3822 95 0C 8B   ADC     A,$8B0C+X
3825 8C 18 C9   DEC     $C918
3828 0C 8C 8E   ASL     $8E8C
382B 18 C9 06   OR      $06,#$C9
382E 8E         POP     PSW
382F 90 0C      BCC     $383D
3831 2F 85      BRA     $37B8
3833 0C 7F 85   ASL     $857F
3836 0C 2F 87   ASL     $872F
3839 0C 7F 87   ASL     $877F
383C 18 2F 89   OR      $89,#$2F
383F 0C C9 0C   ASL     $0CC9
3842 7F         RETI
3843 8B 18      DEC     $18
3845 2F 8C      BRA     $37D3
3847 0C C9 0C   ASL     $0CC9
384A 7F         RETI
384B 8C 8E 18   DEC     $188E
384E C9 06 8E   MOV     $8E06,X
3851 90 0C      BCC     $385F
3853 87 93      ADC     A,[$93+X]
3855 06         OR      A,(X)
3856 88 12      ADC     A,#$12
3858 94 0C      ADC     A,$0C+X
385A 89 06 95   ADC     $95,$06
385D 89 89 89   ADC     $89,$89
3860 0C 8B 8C   ASL     $8C8B
3863 18 C9 0C   OR      $0C,#$C9
3866 8C 8E 18   DEC     $188E
3869 C9 06 8E   MOV     $8E06,X
386C 90 0C      BCC     $387A
386E 6F         RET
386F 85 06 7F   ADC     A,$7F06
3872 91         TCALL   $9
3873 0C 87 06   ASL     $0687
3876 93 0C 84   BBC     $0C,#4,$37FD
3879 00         NOP
387A E1         TCALL   $E
387B 0B 0C      ASL     $0C
387D 7F         RETI
387E CA CE CD   MOV1    $0DCE.#6,C
3881 06         OR      A,(X)
3882 CE         POP     X
3883 CA 0C CA   MOV1    $0A0C.#6,C
3886 CE         POP     X
3887 CD CE      MOV     X,#$CE
3889 EF         SLEEP
388A DA 3B      MOVW    $3B,YA
388C 07 E1      OR      A,[$E1+X]
388E 0A E0 D0   OR1     C,$10E0.#6
3891 18 C9 18   OR      $18,#$C9
3894 3D         INC     X
3895 B9         SBC     (X),(Y)
3896 30 7D      BMI     $3915
3898 B7 0C      SBC     A,[$0C]+Y
389A 3D         INC     X
389B B6 B7 06   SBC     A,$06B7+Y
389E 7D         MOV     A,X
389F B6 0C B2   SBC     A,$B20C+Y
38A2 36 B2 18   AND     A,$18B2+Y
38A5 C9 18 3F   MOV     $3F18,X
38A8 B9         SBC     (X),(Y)
38A9 30 7F      BMI     $392A
38AB B7 0C      SBC     A,[$0C]+Y
38AD 3D         INC     X
38AE B6 B7 06   SBC     A,$06B7+Y
38B1 7D         MOV     A,X
38B2 B6 12 B2   SBC     A,$B212+Y
38B5 06         OR      A,(X)
38B6 C9 12 B5   MOV     $B512,X
38B9 18 B7 C9   OR      $C9,#$B7
38BC 18 3D B9   OR      $B9,#$3D
38BF 30 7D      BMI     $393E
38C1 B7 0C      SBC     A,[$0C]+Y
38C3 3D         INC     X
38C4 B6 B7 06   SBC     A,$06B7+Y
38C7 7D         MOV     A,X
38C8 B6 0C B2   SBC     A,$B20C+Y
38CB 36 B2 18   AND     A,$18B2+Y
38CE C9 18 3D   MOV     $3D18,X
38D1 B9         SBC     (X),(Y)
38D2 30 7D      BMI     $3951
38D4 B7 06      SBC     A,[$06]+Y
38D6 B6 B6 C9   SBC     A,$C9B6+Y
38D9 B6 18 C9   SBC     A,$C918+Y
38DC 12 7F      CLR1    $7F.#0
38DE B5 B7 0C   SBC     A,$0CB7+X
38E1 B8 E1 09   SBC     $09,#$E1
38E4 ED         NOTC
38E5 DC         DEC     Y
38E6 E0         CLRV
38E7 D0 18      BNE     $3901
38E9 C9 18 3D   MOV     $3D18,X
38EC B4 30      SBC     A,$30+X
38EE 7D         MOV     A,X
38EF B4 0C      SBC     A,$0C+X
38F1 3D         INC     X
38F2 B2 B2      CLR1    $B2.#5
38F4 06         OR      A,(X)
38F5 7D         MOV     A,X
38F6 B2 0C      CLR1    $0C.#5
38F8 B0 36      BCS     $3930
38FA B0 18      BCS     $3914
38FC C9 18 3F   MOV     $3F18,X
38FF B4 30      SBC     A,$30+X
3901 7F         RETI
3902 B4 0C      SBC     A,$0C+X
3904 3D         INC     X
3905 B2 B2      CLR1    $B2.#5
3907 06         OR      A,(X)
3908 7D         MOV     A,X
3909 B2 12      CLR1    $12.#5
390B B0 06      BCS     $3913
390D C9 12 B0   MOV     $B012,X
3910 18 B5 C9   OR      $C9,#$B5
3913 18 3D B4   OR      $B4,#$3D
3916 30 7D      BMI     $3995
3918 B4 0C      SBC     A,$0C+X
391A 3D         INC     X
391B B2 B2      CLR1    $B2.#5
391D 06         OR      A,(X)
391E 7D         MOV     A,X
391F B2 0C      CLR1    $0C.#5
3921 B0 36      BCS     $3959
3923 B0 18      BCS     $393D
3925 C9 18 3D   MOV     $3D18,X
3928 B4 30      SBC     A,$30+X
392A 7D         MOV     A,X
392B B4 06      SBC     A,$06+X
392D B2 B2      CLR1    $B2.#5
392F C9 B2 18   MOV     $18B2,X
3932 C9 12 7F   MOV     $7F12,X
3935 B0 B5      BCS     $38EC
3937 0C B2 ED   ASL     $EDB2
393A DC         DEC     Y
393B E1         TCALL   $E
393C 0E E0 D0   TSET1   $D0E0
393F 18 C9 18   OR      $18,#$C9
3942 3D         INC     X
3943 B0 30      BCS     $3975
3945 7D         MOV     A,X
3946 B0 0C      BCS     $3954
3948 3D         INC     X
3949 B0 B0      BCS     $38FB
394B 06         OR      A,(X)
394C 7D         MOV     A,X
394D B0 0C      BCS     $395B
394F AD 36      CMP     Y,#$36
3951 AD 18      CMP     Y,#$18
3953 C9 18 3F   MOV     $3F18,X
3956 B0 30      BCS     $3988
3958 7F         RETI
3959 B0 0C      BCS     $3967
395B 3D         INC     X
395C B0 B0      BCS     $390E
395E 06         OR      A,(X)
395F 7D         MOV     A,X
3960 B0 12      BCS     $3974
3962 AD 06      CMP     Y,#$06
3964 C9 12 AD   MOV     $AD12,X
3967 18 B2 C9   OR      $C9,#$B2
396A 18 3D B0   OR      $B0,#$3D
396D 30 7D      BMI     $39EC
396F B0 0C      BCS     $397D
3971 3D         INC     X
3972 B0 B0      BCS     $3924
3974 06         OR      A,(X)
3975 7D         MOV     A,X
3976 B0 0C      BCS     $3984
3978 B0 36      BCS     $39B0
397A AD 18      CMP     Y,#$18
397C C9 18 3D   MOV     $3D18,X
397F B0 30      BCS     $39B1
3981 7D         MOV     A,X
3982 B0 06      BCS     $398A
3984 B0 B0      BCS     $3936
3986 C9 B0 18   MOV     $18B0,X
3989 C9 12 7F   MOV     $7F12,X
398C AD AF      CMP     Y,#$AF
398E 0C AF ED   ASL     $EDAF
3991 DC         DEC     Y
3992 E1         TCALL   $E
3993 06         OR      A,(X)
3994 E0         CLRV
3995 D0 18      BNE     $39AF
3997 C9 18 3D   MOV     $3D18,X
399A AD 30      CMP     Y,#$30
399C 7D         MOV     A,X
399D AD 0C      CMP     Y,#$0C
399F 3D         INC     X
39A0 AD AD      CMP     Y,#$AD
39A2 06         OR      A,(X)
39A3 7D         MOV     A,X
39A4 AD 0C      CMP     Y,#$0C
39A6 AB 36      INC     $36
39A8 AB 18      INC     $18
39AA C9 18 3F   MOV     $3F18,X
39AD AD 30      CMP     Y,#$30
39AF 7F         RETI
39B0 AD 0C      CMP     Y,#$0C
39B2 3D         INC     X
39B3 AD AD      CMP     Y,#$AD
39B5 06         OR      A,(X)
39B6 7D         MOV     A,X
39B7 AD 12      CMP     Y,#$12
39B9 AB 06      INC     $06
39BB C9 12 AD   MOV     $AD12,X
39BE 18 AF C9   OR      $C9,#$AF
39C1 18 3D AD   OR      $AD,#$3D
39C4 30 7D      BMI     $3A43
39C6 AD 0C      CMP     Y,#$0C
39C8 3D         INC     X
39C9 AD AD      CMP     Y,#$AD
39CB 06         OR      A,(X)
39CC 7D         MOV     A,X
39CD AD 0C      CMP     Y,#$0C
39CF AD 36      CMP     Y,#$36
39D1 AB 18      INC     $18
39D3 C9 18 3D   MOV     $3D18,X
39D6 AD 30      CMP     Y,#$30
39D8 7D         MOV     A,X
39D9 AD 06      CMP     Y,#$06
39DB AD AD      CMP     Y,#$AD
39DD C9 AD 18   MOV     $18AD,X
39E0 C9 12 7F   MOV     $7F12,X
39E3 A9 AB 0C   SBC     $0C,$AB
39E6 AC 12 7F   INC     $7F12
39E9 85 06 85   ADC     A,$8506
39EC 0C 91 06   ASL     $0691
39EF 90 0C      BCC     $39FD
39F1 91         TCALL   $9
39F2 06         OR      A,(X)
39F3 85 0C 91   ADC     A,$910C
39F6 0C 2F 85   ASL     $852F
39F9 91         TCALL   $9
39FA 87 0C      ADC     A,[$0C+X]
39FC 7F         RETI
39FD 93 06 91   BBC     $06,#4,$3991
3A00 93 87 0C   BBC     $87,#4,$3A0F
3A03 87 06      ADC     A,[$06+X]
3A05 8D 8E      MOV     Y,#$8E
3A07 87 0C      ADC     A,[$0C+X]
3A09 2F 87      BRA     $3992
3A0B 0C 7F 93   ASL     $937F
3A0E 12 85      CLR1    $85.#0
3A10 06         OR      A,(X)
3A11 85 0C 91   ADC     A,$910C
3A14 06         OR      A,(X)
3A15 90 0C      BCC     $3A23
3A17 91         TCALL   $9
3A18 06         OR      A,(X)
3A19 85 0C 91   ADC     A,$910C
3A1C 0C 2F 85   ASL     $852F
3A1F 91         TCALL   $9
3A20 87 0C      ADC     A,[$0C+X]
3A22 7F         RETI
3A23 93 06 91   BBC     $06,#4,$39B7
3A26 93 87 0C   BBC     $87,#4,$3A35
3A29 87 06      ADC     A,[$06+X]
3A2B 8D 8E      MOV     Y,#$8E
3A2D 87 0C      ADC     A,[$0C+X]
3A2F 2F 87      BRA     $39B8
3A31 0C 7F 93   ASL     $937F
3A34 0C 2F 84   ASL     $842F
3A37 0C 7F 90   ASL     $907F
3A3A 0C 2F 84   ASL     $842F
3A3D 0C 7F 90   ASL     $907F
3A40 84 06      ADC     A,$06
3A42 2F 84      BRA     $39C8
3A44 06         OR      A,(X)
3A45 7F         RETI
3A46 90 06      BCC     $3A4E
3A48 2F 84      BRA     $39CE
3A4A 06         OR      A,(X)
3A4B 7F         RETI
3A4C 90 0C      BCC     $3A5A
3A4E 84 89      ADC     A,$89
3A50 95 89 95   ADC     A,$9589+X
3A53 89 06 93   ADC     $93,$06
3A56 95 8F 90   ADC     A,$908F+X
3A59 0C 89 0C   ASL     $0C89
3A5C 2F 8E      BRA     $39EC
3A5E 0C 7F 9A   ASL     $9A7F
3A61 8E         POP     PSW
3A62 06         OR      A,(X)
3A63 98 9A 0C   ADC     $0C,#$9A
3A66 C9 06 8C   MOV     $8C06,X
3A69 8E         POP     PSW
3A6A 98 9A 0C   ADC     $0C,#$9A
3A6D 8C 84 06   DEC     $0684
3A70 8F 90 C9   MOV     $C9,#$90
3A73 8A 8B C9   EOR1    C,$098B.#6
3A76 18 84 06   OR      $06,#$84
3A79 9A 9C      SUBW    YA,$9C
3A7B 0C 90 00   ASL     $0090
3A7E 06         OR      A,(X)
3A7F 7F         RETI
3A80 CA 0C CE   MOV1    $0E0C.#6,C
3A83 06         OR      A,(X)
3A84 CA 0C CD   MOV1    $0D0C.#6,C
3A87 06         OR      A,(X)
3A88 CE         POP     X
3A89 CE         POP     X
3A8A CA CE CE   MOV1    $0ECE.#6,C
3A8D CE         POP     X
3A8E CD 0C      MOV     X,#$0C
3A90 CE         POP     X
3A91 06         OR      A,(X)
3A92 CD EF      MOV     X,#$EF
3A94 E6         MOV     A,(X)
3A95 3B 07      ROL     $07+X
3A97 0C 7F B9   ASL     $B97F
3A9A C9 E1 0A   MOV     $0AE1,X
3A9D E3 0C 28   BBS     $0C,#7,$3AC8
3AA0 32 18      CLR1    $18.#1
3AA2 AD 24      CMP     Y,#$24
3AA4 B4 06      SBC     A,$06+X
3AA6 B2 B0      CLR1    $B0.#5
3AA8 24 B2      AND     A,$B2
3AAA 0C B7 18   ASL     $18B7
3AAD B2 C9      CLR1    $C9.#5
3AAF C9 AD B4   MOV     $B4AD,X
3AB2 BC         INC     A
3AB3 F1         TCALL   $F
3AB4 28 08      AND     A,#$08
3AB6 FC         INC     Y
3AB7 30 BB      BMI     $3A74
3AB9 F3 B7 18   BBC     $B7,#7,$3AD4
3ABC C9 AF 24   MOV     $24AF,X
3ABF B4 0C      SBC     A,$0C+X
3AC1 B2 E1      CLR1    $E1.#5
3AC3 04 06      OR      A,$06
3AC5 B1         TCALL   $B
3AC6 B2 54      CLR1    $54.#5
3AC8 B4 30      SBC     A,$30+X
3ACA C9 B5 E1   MOV     $E1B5,X
3ACD 0C 0C BB   ASL     $BB0C
3AD0 E0         CLRV
3AD1 D2 E1      CLR1    $E1.#6
3AD3 12 0C      CLR1    $0C.#0
3AD5 73 B4 18   BBC     $B4,#3,$3AF0
3AD8 C9 0C B4   MOV     $B40C,X
3ADB E0         CLRV
3ADC D0 C9      BNE     $3AA7
3ADE 18 23 C0   OR      $C0,#$23
3AE1 0C 7F B4   ASL     $B47F
3AE4 C9 ED DC   MOV     $DCED,X
3AE7 18 A8 24   OR      $24,#$A8
3AEA AF         MOV     (X)+,A
3AEB 06         OR      A,(X)
3AEC AD AB      CMP     Y,#$AB
3AEE 24 AF      AND     A,$AF
3AF0 0C AF 18   ASL     $18AF
3AF3 AF         MOV     (X)+,A
3AF4 C9 C9 A9   MOV     $A9C9,X
3AF7 B0 B4      BCS     $3AAD
3AF9 30 B2      BMI     $3AAD
3AFB AF         MOV     (X)+,A
3AFC 18 C9 AD   OR      $AD,#$C9
3AFF 24 AF      AND     A,$AF
3B01 0C AF ED   ASL     $EDAF
3B04 FF         STOP
3B05 18 C9 E1   OR      $E1,#$C9
3B08 08 06      OR      A,#$06
3B0A AD AF      CMP     Y,#$AF
3B0C 3C         ROL     A
3B0D B1         TCALL   $B
3B0E E1         TCALL   $E
3B0F 12 18      CLR1    $18.#0
3B11 C9 48 B2   MOV     $B248,X
3B14 E1         TCALL   $E
3B15 0A 0C B8   OR1     C,$180C.#5
3B18 E0         CLRV
3B19 D2 E1      CLR1    $E1.#6
3B1B 12 0C      CLR1    $0C.#0
3B1D 73 AF 06   BBC     $AF,#3,$3B26
3B20 C9 B3 B4   MOV     $B4B3,X
3B23 C9 0C AC   MOV     $AC0C,X
3B26 E0         CLRV
3B27 D0 C9      BNE     $3AF2
3B29 18 2F BE   OR      $BE,#$2F
3B2C ED         NOTC
3B2D D7 0C      MOV     [$0C]+Y,A
3B2F 7F         RETI
3B30 B0 54      BCS     $3B86
3B32 C9 3C C9   MOV     $C93C,X
3B35 ED         NOTC
3B36 C8 18      CMP     X,#$18
3B38 B2 0C      CLR1    $0C.#5
3B3A B2 48      CLR1    $48.#5
3B3C B0 18      BCS     $3B56
3B3E C9 60 B2   MOV     $B260,X
3B41 ED         NOTC
3B42 EB 18      MOV     Y,$18
3B44 C9 B2 24   MOV     $24B2,X
3B47 B2 0C      CLR1    $0C.#5
3B49 B2 ED      CLR1    $ED.#5
3B4B EE         POP     Y
3B4C E1         TCALL   $E
3B4D 0C 30 C9   ASL     $C930
3B50 06         OR      A,(X)
3B51 A5 A6 24   SBC     A,$24A6
3B54 A8 E1      SBC     A,#$E1
3B56 04 60      OR      A,$60
3B58 AF         MOV     (X)+,A
3B59 0C B2 C9   ASL     $C9B2
3B5C E0         CLRV
3B5D D2 E1      CLR1    $E1.#6
3B5F 02 06      SET1    $06.#0
3B61 73 A3 0C   BBC     $A3,#3,$3B70
3B64 C9 06 A3   MOV     $A306,X
3B67 E0         CLRV
3B68 D0 18      BNE     $3B82
3B6A C9 18 23   MOV     $2318,X
3B6D BC         INC     A
3B6E ED         NOTC
3B6F D7 0C      MOV     [$0C]+Y,A
3B71 7F         RETI
3B72 A9 54 C9   SBC     $C9,$54
3B75 3C         ROL     A
3B76 C9 18 AD   MOV     $AD18,X
3B79 0C AD 48   ASL     $48AD
3B7C AD 18      CMP     Y,#$18
3B7E C9 60 AD   MOV     $AD60,X
3B81 ED         NOTC
3B82 EB 18      MOV     Y,$18
3B84 C9 AF 24   MOV     $24AF,X
3B87 AF         MOV     (X)+,A
3B88 0C AF ED   ASL     $EDAF
3B8B F3 48 C9   BBC     $48,#7,$3B57
3B8E E1         TCALL   $E
3B8F 10 06      BPL     $3B97
3B91 A1         TCALL   $A
3B92 A3 0C A5   BBS     $0C,#5,$3B3A
3B95 05 C8 5B   OR      A,$5BC8
3B98 C9 0C C9   MOV     $C90C,X
3B9B E0         CLRV
3B9C D2 E1      CLR1    $E1.#6
3B9E 02 0C      SET1    $0C.#0
3BA0 73 9C 06   BBC     $9C,#3,$3BA9
3BA3 9C         DEC     A
3BA4 0C C9 06   ASL     $06C9
3BA7 9C         DEC     A
3BA8 18 C9 E0   OR      $E0,#$C9
3BAB D0 18      BNE     $3BC5
3BAD 2F BB      BRA     $3B6A
3BAF ED         NOTC
3BB0 D7 E1      MOV     [$E1]+Y,A
3BB2 05 60 C9   OR      A,$C960
3BB5 3C         ROL     A
3BB6 C9 E0 D0   MOV     $D0E0,X
3BB9 18 79 B7   OR      $B7,#$79
3BBC 0C B7 48   ASL     $48B7
3BBF 7F         RETI
3BC0 B5 18 C9   SBC     A,$C918+X
3BC3 60         CLRC
3BC4 B7 ED      SBC     A,[$ED]+Y
3BC6 EB 18      MOV     Y,$18
3BC8 C9 B6 24   MOV     $24B6,X
3BCB B6 0C B6   SBC     A,$B60C+Y
3BCE ED         NOTC
3BCF EE         POP     Y
3BD0 60         CLRC
3BD1 C9 E1 10   MOV     $10E1,X
3BD4 48 C9      EOR     A,#$C9
3BD6 18 B8 60   OR      $60,#$B8
3BD9 C9 CA CE   MOV     $CECA,X
3BDC CD 06      MOV     X,#$06
3BDE CE         POP     X
3BDF CA 0C CA   MOV1    $0A0C.#6,C
3BE2 CE         POP     X
3BE3 CD CE      MOV     X,#$CE
3BE5 00         NOP
3BE6 CA 0C CE   MOV1    $0E0C.#6,C
3BE9 06         OR      A,(X)
3BEA CA 0C CD   MOV1    $0D0C.#6,C
3BED 06         OR      A,(X)
3BEE CE         POP     X
3BEF CE         POP     X
3BF0 CA CE CE   MOV1    $0ECE.#6,C
3BF3 CE         POP     X
3BF4 CD 0C      MOV     X,#$0C
3BF6 CE         POP     X
3BF7 06         OR      A,(X)
3BF8 CD 00      MOV     X,#$00
